ccopy_reg
_reconstructor
p1
(cnetworkx.classes.digraph
DiGraph
p2
c__builtin__
object
p3
NtRp4
(dp5
S'node'
p6
(dp7
V[-hub-][field][[[ems-core][entity-type][foqa-flights]][[[weather][type-link][flight-weather * alternate-prediction-at-landing]]][[weather][base-field][prediction.ceiling]]]
p8
(dp9
Vtype
p10
Vnumber
p11
sS'nodetype'
p12
S'field'
p13
sVid
p14
g8
sVname
p15
VAlternate Forecast at Diversion: Ceiling (ft)
p16
ssV[-hub-][field][[[ems-core][entity-type][foqa-flights]][[[weather][type-link][flight-weather * alternate-prediction-at-landing]]][[weather][base-field][prediction.raw-text]]]
p17
(dp18
Vtype
p19
Vstring
p20
sg12
g13
sVid
p21
g17
sVname
p22
VAlternate Forecast at Diversion: Raw Text
p23
ssV[-hub-][field][[[ems-core][entity-type][foqa-flights]][[airframe-engine-field-set][base-field][airframe-manufacturer]]]
p24
(dp25
Vtype
p26
Vdiscrete
p27
sg12
g13
sVid
p28
g24
sVname
p29
VAirframe Manufacturer
p30
ssV[-hub-][field][[[ems-core][entity-type][foqa-flights]][[block-cost-model][base-field][normalized-bfm-residual]]]
p31
(dp32
Vtype
p33
Vnumber
p34
sg12
g13
sVid
p35
g31
sVname
p36
VNormalized BFM Residual
p37
ssV[-hub-][field][[[ems-core][entity-type][foqa-flights]][[[weather][type-link][foqa-flights * landing-weather]]][[weather][base-field][metar.temperature]]]
p38
(dp39
Vtype
p40
Vnumber
p41
sg12
g13
sVid
p42
g38
sVname
p43
VLanding Temperature (deg C)
p44
ssV[-hub-][field][[[ems-core][entity-type][foqa-flights]][[[nav][type-link][runway-takeoff * foqa-flights]]][[nav][base-field][nav-runway.elevation-end]]]
p45
(dp46
Vtype
p47
Vnumber
p48
sg12
g13
sVid
p49
g45
sVname
p50
VTakeoff Runway Ending Elevation (ft)
p51
ssV[-hub-][field-group][[[ems-core][entity-type][foqa-flights]][[weather][internal-field-group][wx-landing-prediction-at-dispatch]]]
p52
(dp53
g12
S'field_group'
p54
sVid
p55
g52
sVname
p56
VPlanned Landing Forecast at Dispatch
p57
ssV[-hub-][field][[[ems-core][entity-type][foqa-flights]][[crew-contact][base-field][pnf---hours-total]]]
p58
(dp59
Vtype
p60
Vnumber
p61
sg12
g13
sVid
p62
g58
sVname
p63
VPNF - Hours Total
p64
ssV[-hub-][field][[[ems-core][entity-type][foqa-flights]][[[weather][type-link][flight-weather * alternate-prediction-at-dispatch]][[weather][type-link][taf-predictions * taf-records]]][[weather][base-field][taf.header-text]]]
p65
(dp66
Vtype
p67
Vstring
p68
sg12
g13
sVid
p69
g65
sVname
p70
VAlternate Forecast at Dispatch: Header Text
p71
ssV[-hub-][field][[[ems-core][entity-type][foqa-flights]][[[nav][type-link][runway-landing * foqa-flights]]][[nav][base-field][nav-runway.threshold-longitude]]]
p72
(dp73
Vtype
p74
Vnumber
p75
sg12
g13
sVid
p76
g72
sVname
p77
VLanding Threshold Longitude
p78
ssV[-hub-][field][[[ems-core][entity-type][foqa-flights]][[crew-contact][base-field][pilot-flying]]]
p79
(dp80
Vtype
p81
Vdiscrete
p82
sg12
g13
sVid
p83
g79
sVname
p84
VPilot Flying
p85
ssV[-hub-][field][[[ems-core][entity-type][foqa-flights]][[[weather][type-link][flight-weather * landing-prediction-at-takeoff]][[weather][type-link][taf-predictions * taf-records]]][[weather][base-field][taf.import-id]]]
p86
(dp87
Vtype
p88
Vnumber
p89
sg12
g13
sVid
p90
g86
sVname
p91
VPlanned Landing Forecast at Takeoff: Import ID
p92
ssV[-hub-][field][[[ems-core][entity-type][foqa-flights]][[[weather][type-link][foqa-flights * takeoff-weather]]][[weather][base-field][metar.wind-dir]]]
p93
(dp94
Vtype
p95
Vnumber
p96
sg12
g13
sVid
p97
g93
sVname
p98
VTakeoff Wind Direction (deg)
p99
ssV[-hub-][field][[[ems-core][entity-type][foqa-flights]][[[nav][type-link][airport-landing * foqa-flights]]][[nav][base-field][nav-airport.iata-code]]]
p100
(dp101
Vtype
p102
Vstring
p103
sg12
g13
sVid
p104
g100
sVname
p105
VLanding Airport IATA Code
p106
ssV[-hub-][field][[[ems-core][entity-type][foqa-flights]][[[weather][type-link][foqa-flights * takeoff-weather]]][[weather][base-field][metar.pressure]]]
p107
(dp108
Vtype
p109
Vnumber
p110
sg12
g13
sVid
p111
g107
sVname
p112
VTakeoff Altimeter (in Hg)
p113
ssV[-hub-][field][[[ems-core][entity-type][foqa-flights]][[[nav][type-link][runway-landing * foqa-flights]]][[nav][base-field][nav-runway.length]]]
p114
(dp115
Vtype
p116
Vnumber
p117
sg12
g13
sVid
p118
g114
sVname
p119
VLanding Runway Length (ft)
p120
ssV[-hub-][field][[[ems-core][entity-type][foqa-flights]][[[weather][type-link][flight-weather * alternate-prediction-at-takeoff]]][[weather][base-field][prediction.visibility]]]
p121
(dp122
Vtype
p123
Vnumber
p124
sg12
g13
sVid
p125
g121
sVname
p126
VAlternate Forecast at Takeoff: Visibility (sm)
p127
ssV[-hub-][field][[[ems-core][entity-type][foqa-flights]][[data-fusion][base-field][metar-landing-data-validated]]]
p128
(dp129
Vtype
p130
Vdiscrete
p131
sg12
g13
sVid
p132
g128
sVname
p133
VMETAR Landing Data Validated
p134
ssV[-hub-][field][[[ems-core][entity-type][foqa-flights]][[[nav][type-link][runway-landing * foqa-flights]][[nav][type-link][flight-runway * dme]]][[nav][base-field][nav-navaid.latitude]]]
p135
(dp136
Vtype
p137
Vnumber
p138
sg12
g13
sVid
p139
g135
sVname
p140
VLanding DME Latitude
p141
ssV[-hub-][field][[[ems-core][entity-type][foqa-flights]][[ems-core][base-field][flight-nav.takeoff-mag-var]]]
p142
(dp143
Vtype
p144
Vnumber
p145
sg12
g13
sVid
p146
g142
sVname
p147
VTakeoff Airport Magnetic Variation (deg)
p148
ssV[-hub-][field][[[ems-core][entity-type][foqa-flights]][[[nav][type-link][runway-takeoff * foqa-flights]]][[nav][base-field][nav-runway.length]]]
p149
(dp150
Vtype
p151
Vnumber
p152
sg12
g13
sVid
p153
g149
sVname
p154
VTakeoff Runway Length (ft)
p155
ssV[-hub-][field][[[ems-core][entity-type][foqa-flights]][[[nav][type-link][airport-landing * foqa-flights]]][[nav][base-field][nav-airport.type]]]
p156
(dp157
Vtype
p158
Vstring
p159
sg12
g13
sVid
p160
g156
sVname
p161
VLanding Airport Type
p162
ssV[-hub-][field][[[ems-core][entity-type][foqa-flights]][[[weather][type-link][foqa-flights * landing-weather]]][[weather][base-field][metar.wind-speed]]]
p163
(dp164
Vtype
p165
Vnumber
p166
sg12
g13
sVid
p167
g163
sVname
p168
VLanding Wind Speed (kts)
p169
ssV[-hub-][field][[[ems-core][entity-type][foqa-flights]][[data-fusion][base-field][fuel-quantity-available]]]
p170
(dp171
Vtype
p172
Vdiscrete
p173
sg12
g13
sVid
p174
g170
sVname
p175
VFuel Quantity Available
p176
ssV[-hub-][field][[[ems-core][entity-type][foqa-flights]][[[weather][type-link][flight-weather * alternate-prediction-at-takeoff]]][[weather][base-field][prediction.ceiling]]]
p177
(dp178
Vtype
p179
Vnumber
p180
sg12
g13
sVid
p181
g177
sVname
p182
VAlternate Forecast at Takeoff: Ceiling (ft)
p183
ssV[-hub-][field-group][[[ems-core][entity-type][foqa-flights]][[weather][internal-field-group][wx-takeoff]]]
p184
(dp185
g12
g54
sVid
p186
g184
sVname
p187
VTakeoff Observation
p188
ssV[-hub-][field][[[ems-core][entity-type][foqa-flights]][[data-quality][base-field][corrected-position-tests]]]
p189
(dp190
Vtype
p191
Vdiscrete
p192
sg12
g13
sVid
p193
g189
sVname
p194
VCorrected Position Tests
p195
ssV[-hub-][field][[[ems-core][entity-type][foqa-flights]][[[nav][type-link][runway-takeoff * foqa-flights]]][[nav][base-field][nav-runway.elevation-start]]]
p196
(dp197
Vtype
p198
Vnumber
p199
sg12
g13
sVid
p200
g196
sVname
p201
VTakeoff Runway Starting Elevation (ft)
p202
ssV[-hub-][field-group][[[ems-core][entity-type][foqa-flights]][[weather][internal-field-group][wx-alternate-prediction-at-takeoff]]]
p203
(dp204
g12
g54
sVid
p205
g203
sVname
p206
VAlternate Forecast at Takeoff
p207
ssV[-hub-][field][[[ems-core][entity-type][foqa-flights]][[[nav][type-link][runway-landing * foqa-flights]]][[nav][base-field][nav-runway.imark-longitude]]]
p208
(dp209
Vtype
p210
Vnumber
p211
sg12
g13
sVid
p212
g208
sVname
p213
VLanding Inner Marker Longitude
p214
ssV[-hub-][field][[[ems-core][entity-type][foqa-flights]][[[weather][type-link][flight-weather * takeoff-prediction-at-dispatch]]][[weather][base-field][prediction.stop-time]]]
p215
(dp216
Vtype
p217
VdateTime
p218
sg12
g13
sVid
p219
g215
sVname
p220
VTakeoff Forecast at Dispatch: Stop Time
p221
ssV[-hub-][field][[[ems-core][entity-type][foqa-flights]][[ems-core][base-field][flight.exist-trajectory]]]
p222
(dp223
Vtype
p224
Vboolean
p225
sg12
g13
sVid
p226
g222
sVname
p227
VTrajectory Data Exists
p228
ssV[-hub-][field][[[ems-core][entity-type][foqa-flights]][[ems-core][base-field][flight-nav.landing-mag-var]]]
p229
(dp230
Vtype
p231
Vnumber
p232
sg12
g13
sVid
p233
g229
sVname
p234
VLanding Airport Magnetic Variation (deg)
p235
ssV[-hub-][field][[[ems-core][entity-type][foqa-flights]][[[nav][type-link][airport-landing * foqa-flights]]][[nav][base-field][nav-airport.country-string]]]
p236
(dp237
Vtype
p238
Vstring
p239
sg12
g13
sVid
p240
g236
sVname
p241
VLanding Airport Country
p242
ssV[-hub-][field][[[ems-core][entity-type][foqa-flights]][[[weather][type-link][flight-weather * landing-prediction-at-takeoff]][[weather][type-link][taf-predictions * taf-records]]][[weather][base-field][taf.header-text]]]
p243
(dp244
Vtype
p245
Vstring
p246
sg12
g13
sVid
p247
g243
sVname
p248
VPlanned Landing Forecast at Takeoff: Header Text
p249
ssV[-hub-][field][[[ems-core][entity-type][foqa-flights]][[ems-fcs][base-field][fdw-flight-extra.customer]]]
p250
(dp251
Vtype
p252
Vdiscrete
p253
sg12
g13
sVid
p254
g250
sVname
p255
VCustomer ID
p256
ssV[-hub-][field][[[ems-core][entity-type][foqa-flights]][[[weather][type-link][flight-weather * landing-prediction-at-dispatch]]][[weather][base-field][prediction.wind-speed]]]
p257
(dp258
Vtype
p259
Vnumber
p260
sg12
g13
sVid
p261
g257
sVname
p262
VPlanned Landing Forecast at Dispatch: Wind Speed (kts)
p263
ssV[-hub-][field-group][[[ems-core][entity-type][foqa-flights]][[crew-contact][internal-field-group][crew-contact]]]
p264
(dp265
g12
g54
sVid
p266
g264
sVname
p267
VCrew Contact
p268
ssV[-hub-][field][[[ems-core][entity-type][foqa-flights]][[[nav][type-link][runway-landing * foqa-flights]]][[nav][base-field][nav-runway.imark-elevation]]]
p269
(dp270
Vtype
p271
Vnumber
p272
sg12
g13
sVid
p273
g269
sVname
p274
VLanding Inner Marker Elevation (ft)
p275
ssV[-hub-][field][[[ems-core][entity-type][foqa-flights]][[[weather][type-link][flight-weather * alternate-prediction-at-dispatch]][[weather][type-link][taf-predictions * taf-records]]][[weather][base-field][taf.issue-time]]]
p276
(dp277
Vtype
p278
VdateTime
p279
sg12
g13
sVid
p280
g276
sVname
p281
VAlternate Forecast at Dispatch: Issued At
p282
ssV[-hub-][field-group][[[ems-core][entity-type][foqa-flights]][[[nav][type-link][runway-takeoff * foqa-flights]]][[nav][internal-field-group][takeoff-rwy-ils-info]]]
p283
(dp284
g12
g54
sVid
p285
g283
sVname
p286
VILS
p287
ssV[-hub-][field][[[ems-core][entity-type][foqa-flights]][[[nav][type-link][runway-landing * foqa-flights]]][[nav][base-field][nav-runway.dme-bias]]]
p288
(dp289
Vtype
p290
Vnumber
p291
sg12
g13
sVid
p292
g288
sVname
p293
VLanding DME Bias (nm)
p294
ssV[-hub-][field][[[ems-core][entity-type][foqa-flights]][[duplicate-detection][base-field][first-duplicate-partner]]]
p295
(dp296
Vtype
p297
Vnumber
p298
sg12
g13
sVid
p299
g295
sVname
p300
VFirst Duplicate Partner
p301
ssV[-hub-][field][[[ems-core][entity-type][foqa-flights]][[[nav][type-link][airport-landing * foqa-flights]]][[nav][base-field][nav-airport.city]]]
p302
(dp303
Vtype
p304
Vstring
p305
sg12
g13
sVid
p306
g302
sVname
p307
VLanding Airport City
p308
ssV[-hub-][field][[[ems-core][entity-type][foqa-flights]][[crew-contact][base-field][description-of-event]]]
p309
(dp310
Vtype
p311
Vstring
p312
sg12
g13
sVid
p313
g309
sVname
p314
VDescription of Event
p315
ssV[-hub-][field][[[ems-core][entity-type][foqa-flights]][[[weather][type-link][flight-weather * alternate-prediction-at-dispatch]]][[weather][base-field][prediction.stop-time]]]
p316
(dp317
Vtype
p318
VdateTime
p319
sg12
g13
sVid
p320
g316
sVname
p321
VAlternate Forecast at Dispatch: Stop Time
p322
ssV[-hub-][field-group][[[ems-core][entity-type][foqa-flights]][[ems-core][internal-field-group][nav-info-takeoff-airport]]]
p323
(dp324
g12
g54
sVid
p325
g323
sVname
p326
VAirport
p327
ssV[-hub-][field][[[ems-core][entity-type][foqa-flights]][[[nav][type-link][runway-takeoff * foqa-flights]]][[nav][base-field][nav-runway.stopway]]]
p328
(dp329
Vtype
p330
Vnumber
p331
sg12
g13
sVid
p332
g328
sVname
p333
VTakeoff Stopway Length (ft)
p334
ssV[-hub-][field-group][[[ems-core][entity-type][foqa-flights]][[ems-core][internal-field-group][data-info]]]
p335
(dp336
g12
g54
sVid
p337
g335
sVname
p338
VData Information
p339
ssV[-hub-][field][[[ems-core][entity-type][foqa-flights]][[[nav][type-link][runway-takeoff * foqa-flights]]][[nav][base-field][nav-runway.longitude-start]]]
p340
(dp341
Vtype
p342
Vnumber
p343
sg12
g13
sVid
p344
g340
sVname
p345
VTakeoff Runway Starting Longitude
p346
ssV[-hub-][field][[[ems-core][entity-type][foqa-flights]][[[weather][type-link][foqa-flights * landing-weather]]][[weather][base-field][metar.raw-text]]]
p347
(dp348
Vtype
p349
Vstring
p350
sg12
g13
sVid
p351
g347
sVname
p352
VLanding Raw Text
p353
ssV[-hub-][field][[[ems-core][entity-type][foqa-flights]][[[nav][type-link][runway-takeoff * foqa-flights]][[nav][type-link][flight-runway * dme]]][[nav][base-field][nav-navaid.longitude]]]
p354
(dp355
Vtype
p356
Vnumber
p357
sg12
g13
sVid
p358
g354
sVname
p359
VTakeoff DME Longitude
p360
ssV[-hub-][field][[[ems-core][entity-type][foqa-flights]][[ems-core][base-field][flight.airport-landing-fdw]]]
p361
(dp362
Vtype
p363
Vnumber
p364
sg12
g13
sVid
p365
g361
sVname
p366
VLanding Airport FDW ID Number
p367
ssV[-hub-][field][[[ems-core][entity-type][foqa-flights]][[ems-core][base-field][flight.weather-landing-exists]]]
p368
(dp369
Vtype
p370
Vboolean
p371
sg12
g13
sVid
p372
g368
sVname
p373
VLanding Observation Present
p374
ssV[-hub-][field][[[ems-core][entity-type][foqa-flights]][[[ems-aux][type-link][flights * fleets]]][[ems-aux][base-field][fleet.data-type]]]
p375
(dp376
Vtype
p377
Vdiscrete
p378
sg12
g13
sVid
p379
g375
sVname
p380
VFlight Data Type
p381
ssV[-hub-][field][[[ems-core][entity-type][foqa-flights]][[esn-information][base-field][tail-esn--center-]]]
p382
(dp383
Vtype
p384
Vstring
p385
sg12
g13
sVid
p386
g382
sVname
p387
VTail ESN (Center)
p388
ssV[-hub-][field][[[ems-core][entity-type][foqa-flights]][[[weather][type-link][flight-weather * landing-prediction-at-takeoff]]][[weather][base-field][prediction.visibility]]]
p389
(dp390
Vtype
p391
Vnumber
p392
sg12
g13
sVid
p393
g389
sVname
p394
VPlanned Landing Forecast at Takeoff: Visibility (sm)
p395
ssV[-hub-][field][[[ems-core][entity-type][foqa-flights]][[[weather][type-link][foqa-flights * takeoff-weather]]][[weather][base-field][metar.is-parsed]]]
p396
(dp397
Vtype
p398
Vboolean
p399
sg12
g13
sVid
p400
g396
sVname
p401
VTakeoff Parsed OK
p402
ssV[-hub-][field-group][[[ems-core][entity-type][foqa-flights]][[weather][internal-field-group][wx-landing-prediction-at-takeoff]]]
p403
(dp404
g12
g54
sVid
p405
g403
sVname
p406
VPlanned Landing Forecast at Takeoff
p407
ssV[-hub-][field][[[ems-core][entity-type][foqa-flights]][[[weather][type-link][flight-weather * landing-prediction-at-takeoff]]][[weather][base-field][prediction.stop-time]]]
p408
(dp409
Vtype
p410
VdateTime
p411
sg12
g13
sVid
p412
g408
sVname
p413
VPlanned Landing Forecast at Takeoff: Stop Time
p414
ssV[-hub-][field][[[ems-core][entity-type][foqa-flights]][[data-fusion][base-field][wb-load-sheet-available]]]
p415
(dp416
Vtype
p417
Vdiscrete
p418
sg12
g13
sVid
p419
g415
sVname
p420
VWB Load Sheet Available
p421
ssV[-hub-][field][[[ems-core][entity-type][foqa-flights]][[data-fusion][base-field][gross-weight-available]]]
p422
(dp423
Vtype
p424
Vdiscrete
p425
sg12
g13
sVid
p426
g422
sVname
p427
VGross Weight Available
p428
ssV[-hub-][field][[[ems-core][entity-type][foqa-flights]][[[weather][type-link][flight-weather * alternate-prediction-at-landing]][[weather][type-link][taf-predictions * taf-records]]][[weather][base-field][taf.issue-time]]]
p429
(dp430
Vtype
p431
VdateTime
p432
sg12
g13
sVid
p433
g429
sVname
p434
VAlternate Forecast at Diversion: Issued At
p435
ssV[-hub-][field][[[ems-core][entity-type][foqa-flights]][[[weather][type-link][flight-weather * landing-prediction-at-takeoff]]][[weather][base-field][prediction.uid]]]
p436
(dp437
Vtype
p438
Vnumber
p439
sg12
g13
sVid
p440
g436
sVname
p441
VPlanned Landing Forecast at Takeoff: Prediction Record
p442
ssV[-hub-][field][[[ems-core][entity-type][foqa-flights]][[airframe-engine-field-set][base-field][engine-series]]]
p443
(dp444
Vtype
p445
Vdiscrete
p446
sg12
g13
sVid
p447
g443
sVname
p448
VEngine Type
p449
ssV[-hub-][field-group][[[ems-core][entity-type][foqa-flights]][[data-fusion][internal-field-group][data-fusion]]]
p450
(dp451
g12
g54
sVid
p452
g450
sVname
p453
VData Fusion
p454
ssV[-hub-][field][[[ems-core][entity-type][foqa-flights]][[ems-core][base-field][flight.exist-takeoff]]]
p455
(dp456
Vtype
p457
Vboolean
p458
sg12
g13
sVid
p459
g455
sVname
p460
VTakeoff Valid
p461
ssV[-hub-][field][[[ems-core][entity-type][foqa-flights]][[crew-contact][base-field][crew-complement]]]
p462
(dp463
Vtype
p464
Vdiscrete
p465
sg12
g13
sVid
p466
g462
sVname
p467
VCrew Composition
p468
ssV[-hub-][field][[[ems-core][entity-type][foqa-flights]][[data-fusion][base-field][flight-plan-available]]]
p469
(dp470
Vtype
p471
Vdiscrete
p472
sg12
g13
sVid
p473
g469
sVname
p474
VFlight Plan Available
p475
ssV[-hub-][field][[[ems-core][entity-type][foqa-flights]][[esn-information][base-field][tail-esn--left-inbd-]]]
p476
(dp477
Vtype
p478
Vstring
p479
sg12
g13
sVid
p480
g476
sVname
p481
VTail ESN (Left Inbd)
p482
ssV[-hub-][field][[[ems-core][entity-type][foqa-flights]][[[nav][type-link][runway-landing * foqa-flights]][[nav][type-link][flight-runway * dme]]][[nav][base-field][nav-navaid.longitude]]]
p483
(dp484
Vtype
p485
Vnumber
p486
sg12
g13
sVid
p487
g483
sVname
p488
VLanding DME Longitude
p489
ssV[-hub-][field][[[ems-core][entity-type][foqa-flights]][[crew-contact][base-field][crew-contact-date]]]
p490
(dp491
Vtype
p492
VdateTime
p493
sg12
g13
sVid
p494
g490
sVname
p495
VCrew Contact Date
p496
ssV[-hub-][field][[[ems-core][entity-type][foqa-flights]][[[nav][type-link][runway-takeoff * foqa-flights]]][[nav][base-field][nav-runway.short-runway]]]
p497
(dp498
Vtype
p499
Vboolean
p500
sg12
g13
sVid
p501
g497
sVname
p502
VTakeoff Short Runway
p503
ssV[-hub-][field][[[ems-core][entity-type][foqa-flights]][[[nav][type-link][runway-landing * foqa-flights]]][[nav][base-field][nav-runway.imark-latitude]]]
p504
(dp505
Vtype
p506
Vnumber
p507
sg12
g13
sVid
p508
g504
sVname
p509
VLanding Inner Marker Latitude
p510
ssV[-hub-][field][[[ems-core][entity-type][foqa-flights]][[ems-core][base-field][flight.airport-landing]]]
p511
(dp512
Vtype
p513
Vdiscrete
p514
sg12
g13
sVid
p515
g511
sVname
p516
VLanding Airport Code
p517
ssV[-hub-][field-group][[[ems-core][entity-type][foqa-flights]][[weather][internal-field-group][wx-info]]]
p518
(dp519
g12
g54
sVid
p520
g518
sVname
p521
VWeather Information
p522
ssV[-hub-][field][[[ems-core][entity-type][foqa-flights]][[odw-logical][base-field][fdw-flight-odw-link.has-odw-match]]]
p523
(dp524
Vtype
p525
Vboolean
p526
sg12
g13
sVid
p527
g523
sVname
p528
VHas ODW Match
p529
ssV[-hub-][field-group][[[ems-core][entity-type][foqa-flights]][[duplicate-detection][internal-field-group][duplicate-detection]]]
p530
(dp531
g12
g54
sVid
p532
g530
sVname
p533
VDuplicate Detection
p534
ssV[-hub-][field][[[ems-core][entity-type][foqa-flights]][[ems-core][base-field][flight.weather-takeoff-delta]]]
p535
(dp536
Vtype
p537
Vnumber
p538
sg12
g13
sVid
p539
g535
sVname
p540
VTakeoff Observation Time Delta (minutes before liftoff)
p541
ssV[-hub-][field][[[ems-core][entity-type][foqa-flights]][[esn-information][base-field][esn--left-inbd-]]]
p542
(dp543
Vtype
p544
Vstring
p545
sg12
g13
sVid
p546
g542
sVname
p547
VESN (Left Inbd)
p548
ssV[-hub-][field][[[ems-core][entity-type][foqa-flights]][[[weather][type-link][flight-weather * alternate-prediction-at-dispatch]]][[weather][base-field][prediction.wind-dir]]]
p549
(dp550
Vtype
p551
Vnumber
p552
sg12
g13
sVid
p553
g549
sVname
p554
VAlternate Forecast at Dispatch: Wind Direction (deg)
p555
ssV[-hub-][field][[[ems-core][entity-type][foqa-flights]][[[nav][type-link][runway-landing * foqa-flights]]][[nav][base-field][nav-runway.latitude-start]]]
p556
(dp557
Vtype
p558
Vnumber
p559
sg12
g13
sVid
p560
g556
sVname
p561
VLanding Runway Starting Latitude
p562
ssV[-hub-][field][[[ems-core][entity-type][foqa-flights]][[[nav][type-link][runway-landing * foqa-flights]]][[nav][base-field][nav-runway.threshold-elevation]]]
p563
(dp564
Vtype
p565
Vnumber
p566
sg12
g13
sVid
p567
g563
sVname
p568
VLanding Threshold Elevation (ft)
p569
ssV[-hub-][field][[[ems-core][entity-type][foqa-flights]][[[weather][type-link][flight-weather * landing-prediction-at-dispatch]]][[weather][base-field][prediction.wind-dir]]]
p570
(dp571
Vtype
p572
Vnumber
p573
sg12
g13
sVid
p574
g570
sVname
p575
VPlanned Landing Forecast at Dispatch: Wind Direction (deg)
p576
ssV[-hub-][field-group][[[ems-core][entity-type][foqa-flights]][[ems-core][internal-field-group][foqa-flights-processing]]]
p577
(dp578
g12
g54
sVid
p579
g577
sVname
p580
VProcessing
p581
ssV[-hub-][field][[[ems-core][entity-type][foqa-flights]][[crew-contact][base-field][crew-contact-status]]]
p582
(dp583
Vtype
p584
Vdiscrete
p585
sg12
g13
sVid
p586
g582
sVname
p587
VCrew Contact Status
p588
ssV[-hub-][field][[[ems-core][entity-type][foqa-flights]][[[nav][type-link][airport-landing * foqa-flights]]][[nav][base-field][nav-airport.name]]]
p589
(dp590
Vtype
p591
Vstring
p592
sg12
g13
sVid
p593
g589
sVname
p594
VLanding Airport Name
p595
ssV[-hub-][field][[[ems-core][entity-type][foqa-flights]][[ems-core][base-field][flight.takeoff-airport-to-landing-runway]]]
p596
(dp597
Vtype
p598
Vdiscrete
p599
sg12
g13
sVid
p600
g596
sVname
p601
VTakeoff Arpt -> Landing Rwy
p602
ssV[-hub-][field][[[ems-core][entity-type][foqa-flights]][[crew-contact][base-field][pf---hours-total]]]
p603
(dp604
Vtype
p605
Vnumber
p606
sg12
g13
sVid
p607
g603
sVname
p608
VPF - Hours Total
p609
ssV[-hub-][field][[[ems-core][entity-type][foqa-flights]][[ems-core][base-field][flight.date-confidence]]]
p610
(dp611
Vtype
p612
Vdiscrete
p613
sg12
g13
sVid
p614
g610
sVname
p615
VFlight Date Confidence
p616
ssV[-hub-][field][[[ems-core][entity-type][foqa-flights]][[ems-core][base-field][flight.runway-takeoff]]]
p617
(dp618
Vtype
p619
Vdiscrete
p620
sg12
g13
sVid
p621
g617
sVname
p622
VTakeoff Runway ID
p623
ssV[-hub-][field][[[ems-core][entity-type][foqa-flights]][[[nav][type-link][airport-landing * foqa-flights]]][[nav][base-field][nav-airport.icao-code]]]
p624
(dp625
Vtype
p626
Vstring
p627
sg12
g13
sVid
p628
g624
sVname
p629
VLanding Airport ICAO Code
p630
ssV[-hub-][field][[[ems-core][entity-type][foqa-flights]][[[ems-aux][type-link][fdw-flights * aircraft]]][[ems-aux][base-field][fdw-aircraft.active-state]]]
p631
(dp632
Vtype
p633
Vdiscrete
p634
sg12
g13
sVid
p635
g631
sVname
p636
VAircraft Active State
p637
ssV[-hub-][field][[[ems-core][entity-type][foqa-flights]][[[weather][type-link][flight-weather * landing-prediction-at-dispatch]]][[weather][base-field][prediction.ceiling]]]
p638
(dp639
Vtype
p640
Vnumber
p641
sg12
g13
sVid
p642
g638
sVname
p643
VPlanned Landing Forecast at Dispatch: Ceiling (ft)
p644
ssV[-hub-][field-group][[[ems-core][entity-type][foqa-flights]][[ems-core][internal-field-group][nav-info-takeoff]]]
p645
(dp646
g12
g54
sVid
p647
g645
sVname
p648
VTakeoff
p649
ssV[-hub-][field][[[ems-core][entity-type][foqa-flights]][[ems-core][base-field][flight.procedure-takeoff]]]
p650
(dp651
Vtype
p652
Vdiscrete
p653
sg12
g13
sVid
p654
g650
sVname
p655
VDeparture
p656
ssV[-hub-][field][[[ems-core][entity-type][foqa-flights]][[[weather][type-link][flight-weather * alternate-prediction-at-dispatch]]][[weather][base-field][prediction.uid]]]
p657
(dp658
Vtype
p659
Vnumber
p660
sg12
g13
sVid
p661
g657
sVname
p662
VAlternate Forecast at Dispatch: Prediction Record
p663
ssV[-hub-][field-group][[[ems-core][entity-type][foqa-flights]][[[nav][type-link][runway-takeoff * foqa-flights]]][[nav][internal-field-group][takeoff-rwy-geometry-info]]]
p664
(dp665
g12
g54
sVid
p666
g664
sVname
p667
VGeometry
p668
ssV[-hub-][field][[[ems-core][entity-type][foqa-flights]][[[nav][type-link][airport-takeoff * foqa-flights]]][[nav][base-field][nav-airport.faa-code]]]
p669
(dp670
Vtype
p671
Vstring
p672
sg12
g13
sVid
p673
g669
sVname
p674
VTakeoff Airport FAA / Regional Code
p675
ssV[-hub-][field][[[ems-core][entity-type][foqa-flights]][[ems-core][base-field][flight.no-discard]]]
p676
(dp677
Vtype
p678
Vboolean
p679
sg12
g13
sVid
p680
g676
sVname
p681
VFlight Data Protected
p682
ssV[-hub-][field][[[ems-core][entity-type][foqa-flights]][[ems-core][base-field][flight.exist-terrain]]]
p683
(dp684
Vtype
p685
Vboolean
p686
sg12
g13
sVid
p687
g683
sVname
p688
VTerrain Data Exists
p689
ssV[-hub-][field][[[ems-core][entity-type][foqa-flights]][[[nav][type-link][airport-takeoff * foqa-flights]]][[nav][base-field][nav-airport.city]]]
p690
(dp691
Vtype
p692
Vstring
p693
sg12
g13
sVid
p694
g690
sVname
p695
VTakeoff Airport City
p696
ssV[-hub-][field-group][[[ems-core][entity-type][foqa-flights]][[weather][internal-field-group][wx-observations]]]
p697
(dp698
g12
g54
sVid
p699
g697
sVname
p700
VObservations
p701
ssV[-hub-][field][[[ems-core][entity-type][foqa-flights]][[ems-core][base-field][flight.random-sample]]]
p702
(dp703
Vtype
p704
Vnumber
p705
sg12
g13
sVid
p706
g702
sVname
p707
VRandom Number [0-1]
p708
ssV[-hub-][field][[[ems-core][entity-type][foqa-flights]][[esn-information][base-field][tail-esn--right-inbd-]]]
p709
(dp710
Vtype
p711
Vstring
p712
sg12
g13
sVid
p713
g709
sVname
p714
VTail ESN (Right Inbd)
p715
ssV[-hub-][field-group][[[ems-core][entity-type][foqa-flights]][[[nav][type-link][runway-landing * foqa-flights]]][[nav][internal-field-group][landing-rwy-id-info]]]
p716
(dp717
g12
g54
sVid
p718
g716
sVname
p719
VID
p720
ssV[-hub-][field][[[ems-core][entity-type][foqa-flights]][[[weather][type-link][flight-weather * takeoff-prediction-at-dispatch]][[weather][type-link][taf-predictions * taf-records]]][[weather][base-field][taf.import-id]]]
p721
(dp722
Vtype
p723
Vnumber
p724
sg12
g13
sVid
p725
g721
sVname
p726
VTakeoff Forecast at Dispatch: Import ID
p727
ssV[-hub-][field][[[ems-core][entity-type][foqa-flights]][[[weather][type-link][flight-weather * alternate-prediction-at-takeoff]]][[weather][base-field][prediction.start-time]]]
p728
(dp729
Vtype
p730
VdateTime
p731
sg12
g13
sVid
p732
g728
sVname
p733
VAlternate Forecast at Takeoff: Start Time
p734
ssV[-hub-][field][[[ems-core][entity-type][foqa-flights]][[[weather][type-link][flight-weather * landing-prediction-at-takeoff]]][[weather][base-field][prediction.ceiling]]]
p735
(dp736
Vtype
p737
Vnumber
p738
sg12
g13
sVid
p739
g735
sVname
p740
VPlanned Landing Forecast at Takeoff: Ceiling (ft)
p741
ssV[-hub-][field][[[ems-core][entity-type][foqa-flights]][[ems-core][base-field][flight.transition-takeoff]]]
p742
(dp743
Vtype
p744
Vstring
p745
sg12
g13
sVid
p746
g742
sVname
p747
VDeparture Transition
p748
ssV[-hub-][field][[[ems-core][entity-type][foqa-flights]][[[nav][type-link][runway-landing * foqa-flights]]][[nav][base-field][nav-runway.displaced-threshold]]]
p749
(dp750
Vtype
p751
Vnumber
p752
sg12
g13
sVid
p753
g749
sVname
p754
VLanding Threshold Displacement (ft)
p755
ssV[-hub-][field][[[ems-core][entity-type][foqa-flights]][[[nav][type-link][runway-takeoff * foqa-flights]]][[nav][base-field][nav-runway.backcourse-loc-frequency]]]
p756
(dp757
Vtype
p758
Vnumber
p759
sg12
g13
sVid
p760
g756
sVname
p761
VTakeoff Localizer Frequency (Backcourse) (MHz)
p762
ssV[-hub-][field][[[ems-core][entity-type][foqa-flights]][[[nav][type-link][runway-landing * foqa-flights]]][[nav][base-field][nav-runway.short-runway]]]
p763
(dp764
Vtype
p765
Vboolean
p766
sg12
g13
sVid
p767
g763
sVname
p768
VLanding Short Runway
p769
ssV[-hub-][field][[[ems-core][entity-type][foqa-flights]][[[weather][type-link][flight-weather * takeoff-prediction-at-dispatch]]][[weather][base-field][prediction.wind-dir]]]
p770
(dp771
Vtype
p772
Vnumber
p773
sg12
g13
sVid
p774
g770
sVname
p775
VTakeoff Forecast at Dispatch: Wind Direction (deg)
p776
ssV[-hub-][field][[[ems-core][entity-type][foqa-flights]][[ems-core][base-field][flight.aircraft-version]]]
p777
(dp778
Vtype
p779
Vdiscrete
p780
sg12
g13
sVid
p781
g777
sVname
p782
VNose Number
p783
ssV[-hub-][field][[[ems-core][entity-type][foqa-flights]][[[weather][type-link][flight-weather * alternate-prediction-at-landing]][[weather][type-link][taf-predictions * taf-records]]][[weather][base-field][taf.import-id]]]
p784
(dp785
Vtype
p786
Vnumber
p787
sg12
g13
sVid
p788
g784
sVname
p789
VAlternate Forecast at Diversion: Import ID
p790
ssV[-hub-][field][[[ems-core][entity-type][foqa-flights]][[crew-contact][base-field][pf---hours-on-type]]]
p791
(dp792
Vtype
p793
Vnumber
p794
sg12
g13
sVid
p795
g791
sVname
p796
VPF - Hours in Type
p797
ssV[-hub-][field][[[ems-core][entity-type][foqa-flights]][[[weather][type-link][flight-weather * alternate-prediction-at-takeoff]][[weather][type-link][taf-predictions * taf-records]]][[weather][base-field][taf.issue-time]]]
p798
(dp799
Vtype
p800
VdateTime
p801
sg12
g13
sVid
p802
g798
sVname
p803
VAlternate Forecast at Takeoff: Issued At
p804
ssV[-hub-][field][[[ems-core][entity-type][foqa-flights]][[[weather][type-link][flight-weather * takeoff-prediction-at-dispatch]]][[weather][base-field][prediction.start-time]]]
p805
(dp806
Vtype
p807
VdateTime
p808
sg12
g13
sVid
p809
g805
sVname
p810
VTakeoff Forecast at Dispatch: Start Time
p811
ssV[-hub-][field][[[ems-core][entity-type][foqa-flights]][[ems-core][base-field][flight.client-data-1]]]
p812
(dp813
Vtype
p814
Vdiscrete
p815
sg12
g13
sVid
p816
g812
sVname
p817
VFleet Group
p818
ssV[-hub-][field][[[ems-core][entity-type][foqa-flights]][[[nav][type-link][runway-takeoff * foqa-flights]]][[nav][base-field][nav-runway.longitude-end]]]
p819
(dp820
Vtype
p821
Vnumber
p822
sg12
g13
sVid
p823
g819
sVname
p824
VTakeoff Runway Ending Longitude
p825
ssV[-hub-][field][[[ems-core][entity-type][foqa-flights]][[[nav][type-link][runway-takeoff * foqa-flights]][[nav][type-link][flight-runway * localizer]]][[nav][base-field][nav-navaid.elevation]]]
p826
(dp827
Vtype
p828
Vnumber
p829
sg12
g13
sVid
p830
g826
sVname
p831
VTakeoff Localizer Elevation (ft)
p832
ssV[-hub-][field][[[ems-core][entity-type][foqa-flights]][[[nav][type-link][runway-landing * foqa-flights]]][[nav][base-field][nav-runway.gs-longitude]]]
p833
(dp834
Vtype
p835
Vnumber
p836
sg12
g13
sVid
p837
g833
sVname
p838
VLanding Glideslope Longitude
p839
ssV[-hub-][field][[[ems-core][entity-type][foqa-flights]][[data-fusion][base-field][oooi-data-validated]]]
p840
(dp841
Vtype
p842
Vdiscrete
p843
sg12
g13
sVid
p844
g840
sVname
p845
VOOOI Data Validated
p846
ssV[-hub-][field-group][[[ems-core][entity-type][foqa-flights]][[[ems-core][type-link][downloads * flights]]][[ems-aux][internal-field-group][download-review]]]
p847
(dp848
g12
g54
sVid
p849
g847
sVname
p850
VDownload Review
p851
ssV[-hub-][field][[[ems-core][entity-type][foqa-flights]][[[nav][type-link][airport-takeoff * foqa-flights]]][[nav][base-field][nav-airport.type]]]
p852
(dp853
Vtype
p854
Vstring
p855
sg12
g13
sVid
p856
g852
sVname
p857
VTakeoff Airport Type
p858
ssV[-hub-][field-group][[[ems-core][entity-type][foqa-flights]][[ems-core][internal-field-group][nav-info-arrival]]]
p859
(dp860
g12
g54
sVid
p861
g859
sVname
p862
VArrival
p863
ssV[-hub-][field][[[ems-core][entity-type][foqa-flights]][[exact-fleet][base-field][exact-fleet]]]
p864
(dp865
Vtype
p866
Vdiscrete
p867
sg12
g13
sVid
p868
g864
sVname
p869
VExact Fleet
p870
ssV[-hub-][field][[[ems-core][entity-type][foqa-flights]][[ems-core][base-field][flight.exist-takeoff-or-landing]]]
p871
(dp872
Vtype
p873
Vboolean
p874
sg12
g13
sVid
p875
g871
sVname
p876
VTakeoff or Landing Valid
p877
ssV[-hub-][field][[[ems-core][entity-type][foqa-flights]][[data-fusion][base-field][preferred-gross-weight-source]]]
p878
(dp879
Vtype
p880
Vdiscrete
p881
sg12
g13
sVid
p882
g878
sVname
p883
VPreferred Gross Weight Source
p884
ssV[-hub-][field-group][[[ems-core][entity-type][foqa-flights]][[ems-core][internal-field-group][nav-info-departure]]]
p885
(dp886
g12
g54
sVid
p887
g885
sVname
p888
VDeparture
p889
ssV[-hub-][field-group][[[ems-core][entity-type][foqa-flights]][[ems-aux][internal-field-group][flight-review]]]
p890
(dp891
g12
g54
sVid
p892
g890
sVname
p893
VFlight Review
p894
ssV[-hub-][field][[[ems-core][entity-type][foqa-flights]][[data-quality][base-field][phase-of-flight-tests]]]
p895
(dp896
Vtype
p897
Vdiscrete
p898
sg12
g13
sVid
p899
g895
sVname
p900
VPhase of Flight Tests
p901
ssV[-hub-][field][[[ems-core][entity-type][foqa-flights]][[ems-core][base-field][flight.client-data-0]]]
p902
(dp903
Vtype
p904
Vdiscrete
p905
sg12
g13
sVid
p906
g902
sVname
p907
VFlight Classification
p908
ssV[-hub-][field][[[ems-core][entity-type][foqa-flights]][[[nav][type-link][airport-landing * foqa-flights]]][[nav][base-field][nav-airport.state-string]]]
p909
(dp910
Vtype
p911
Vstring
p912
sg12
g13
sVid
p913
g909
sVname
p914
VLanding Airport State
p915
ssV[-hub-][field][[[ems-core][entity-type][foqa-flights]][[[weather][type-link][flight-weather * alternate-prediction-at-dispatch]]][[weather][base-field][prediction.ceiling]]]
p916
(dp917
Vtype
p918
Vnumber
p919
sg12
g13
sVid
p920
g916
sVname
p921
VAlternate Forecast at Dispatch: Ceiling (ft)
p922
ssV[-hub-][field-group][[[ems-core][entity-type][foqa-flights]][[weather][internal-field-group][wx-alternate-prediction-at-landing]]]
p923
(dp924
g12
g54
sVid
p925
g923
sVname
p926
VAlternate Forecast at Diversion
p927
ssV[-hub-][field][[[ems-core][entity-type][foqa-flights]][[[weather][type-link][flight-weather * alternate-prediction-at-takeoff]][[weather][type-link][taf-predictions * taf-records]]][[weather][base-field][taf.validity-stop]]]
p928
(dp929
Vtype
p930
VdateTime
p931
sg12
g13
sVid
p932
g928
sVname
p933
VAlternate Forecast at Takeoff: Valid Until
p934
ssV[-hub-][field][[[ems-core][entity-type][foqa-flights]][[ems-core][base-field][flight.flight-num-str]]]
p935
(dp936
Vtype
p937
Vstring
p938
sg12
g13
sVid
p939
g935
sVname
p940
VFlight Number String
p941
ssV[-hub-][field][[[ems-core][entity-type][foqa-flights]][[ems-core][base-field][flight.runway-confidence-takeoff]]]
p942
(dp943
Vtype
p944
Vnumber
p945
sg12
g13
sVid
p946
g942
sVname
p947
VTakeoff Runway Confidence
p948
ssV[-hub-][field][[[ems-core][entity-type][foqa-flights]][[[weather][type-link][flight-weather * alternate-prediction-at-takeoff]]][[weather][base-field][prediction.uid]]]
p949
(dp950
Vtype
p951
Vnumber
p952
sg12
g13
sVid
p953
g949
sVname
p954
VAlternate Forecast at Takeoff: Prediction Record
p955
ssV[-hub-][field][[[ems-core][entity-type][foqa-flights]][[[nav][type-link][runway-landing * foqa-flights]]][[nav][base-field][nav-runway.longitude-end]]]
p956
(dp957
Vtype
p958
Vnumber
p959
sg12
g13
sVid
p960
g956
sVname
p961
VLanding Runway Ending Longitude
p962
ssV[-hub-][field][[[ems-core][entity-type][foqa-flights]][[[weather][type-link][flight-weather * alternate-prediction-at-landing]]][[weather][base-field][prediction.wind-speed]]]
p963
(dp964
Vtype
p965
Vnumber
p966
sg12
g13
sVid
p967
g963
sVname
p968
VAlternate Forecast at Diversion: Wind Speed (kts)
p969
ssV[-hub-][field][[[ems-core][entity-type][foqa-flights]][[[weather][type-link][flight-weather * landing-prediction-at-takeoff]]][[weather][base-field][prediction.wind-dir]]]
p970
(dp971
Vtype
p972
Vnumber
p973
sg12
g13
sVid
p974
g970
sVname
p975
VPlanned Landing Forecast at Takeoff: Wind Direction (deg)
p976
ssV[-hub-][field][[[ems-core][entity-type][foqa-flights]][[[nav][type-link][airport-takeoff * foqa-flights]]][[nav][base-field][nav-airport.icao-code]]]
p977
(dp978
Vtype
p979
Vstring
p980
sg12
g13
sVid
p981
g977
sVname
p982
VTakeoff Airport ICAO Code
p983
ssV[-hub-][field-group][[[ems-core][entity-type][foqa-flights]][[weather][internal-field-group][wx-landing]]]
p984
(dp985
g12
g54
sVid
p986
g984
sVname
p987
VLanding Observation
p988
ssV[-hub-][field][[[ems-core][entity-type][foqa-flights]][[esn-information][base-field][esn--center-]]]
p989
(dp990
Vtype
p991
Vstring
p992
sg12
g13
sVid
p993
g989
sVname
p994
VESN (Center)
p995
ssV[-hub-][field][[[ems-core][entity-type][foqa-flights]][[[nav][type-link][runway-takeoff * foqa-flights]]][[nav][base-field][nav-runway.loc-frequency]]]
p996
(dp997
Vtype
p998
Vnumber
p999
sg12
g13
sVid
p1000
g996
sVname
p1001
VTakeoff Localizer Frequency (MHz)
p1002
ssV[-hub-][field-group][[[ems-core][entity-type][foqa-flights]][[[ems-aux][type-link][flights * fleets]]][[ems-aux][internal-field-group][fleet-info]]]
p1003
(dp1004
g12
g54
sVid
p1005
g1003
sVname
p1006
VFleet Information
p1007
ssV[-hub-][field][[[ems-core][entity-type][foqa-flights]][[[nav][type-link][runway-landing * foqa-flights]][[nav][type-link][flight-runway * localizer]]][[nav][base-field][nav-navaid.longitude]]]
p1008
(dp1009
Vtype
p1010
Vnumber
p1011
sg12
g13
sVid
p1012
g1008
sVname
p1013
VLanding Localizer Longitude
p1014
ssV[-hub-][field-group][[[ems-core][entity-type][foqa-flights]][[weather][internal-field-group][wx-predictions]]]
p1015
(dp1016
g12
g54
sVid
p1017
g1015
sVname
p1018
VForecasts
p1019
ssV[-hub-][field][[[ems-core][entity-type][foqa-flights]][[[weather][type-link][flight-weather * alternate-prediction-at-landing]][[weather][type-link][taf-predictions * taf-records]]][[weather][base-field][taf.header-text]]]
p1020
(dp1021
Vtype
p1022
Vstring
p1023
sg12
g13
sVid
p1024
g1020
sVname
p1025
VAlternate Forecast at Diversion: Header Text
p1026
ssV[-hub-][field][[[ems-core][entity-type][foqa-flights]][[esn-information][base-field][tail-esn--right-outbd-]]]
p1027
(dp1028
Vtype
p1029
Vstring
p1030
sg12
g13
sVid
p1031
g1027
sVname
p1032
VTail ESN (Right Outbd)
p1033
ssV[-hub-][field][[[ems-core][entity-type][foqa-flights]][[[nav][type-link][airport-takeoff * foqa-flights]]][[nav][base-field][nav-airport.country-string]]]
p1034
(dp1035
Vtype
p1036
Vstring
p1037
sg12
g13
sVid
p1038
g1034
sVname
p1039
VTakeoff Airport Country
p1040
ssV[-hub-][field][[[ems-core][entity-type][foqa-flights]][[[nav][type-link][runway-landing * foqa-flights]]][[nav][base-field][nav-runway.gs-elevation]]]
p1041
(dp1042
Vtype
p1043
Vnumber
p1044
sg12
g13
sVid
p1045
g1041
sVname
p1046
VLanding Glideslope Elevation (ft)
p1047
ssV[-hub-][field-group][[[ems-core][entity-type][foqa-flights]][[ems-core][internal-field-group][flight-info]]]
p1048
(dp1049
g12
g54
sVid
p1050
g1048
sVname
p1051
VFlight Information
p1052
ssV[-hub-][field][[[ems-core][entity-type][foqa-flights]][[ems-core][base-field][flight.procedure-landing]]]
p1053
(dp1054
Vtype
p1055
Vdiscrete
p1056
sg12
g13
sVid
p1057
g1053
sVname
p1058
VArrival
p1059
ssV[-hub-][field][[[ems-core][entity-type][foqa-flights]][[airframe-engine-field-set][base-field][airframe-engine]]]
p1060
(dp1061
Vtype
p1062
Vdiscrete
p1063
sg12
g13
sVid
p1064
g1060
sVname
p1065
VAirframe Engine Type
p1066
ssV[-hub-][field-group][[[ems-core][entity-type][foqa-flights]][[esn-information][internal-field-group][engine-information]]]
p1067
(dp1068
g12
g54
sVid
p1069
g1067
sVname
p1070
VEngine Information
p1071
ssV[-hub-][field][[[ems-core][entity-type][foqa-flights]][[duplicate-detection][base-field][duplicate-detection--master-]]]
p1072
(dp1073
Vtype
p1074
Vdiscrete
p1075
sg12
g13
sVid
p1076
g1072
sVname
p1077
VDuplicate Detection (Master)
p1078
ssV[-hub-][field][[[ems-core][entity-type][foqa-flights]][[ems-core][base-field][flight.procedure-confidence-takeoff]]]
p1079
(dp1080
Vtype
p1081
Vnumber
p1082
sg12
g13
sVid
p1083
g1079
sVname
p1084
VDeparture Confidence
p1085
ssV[-hub-][field][[[ems-core][entity-type][foqa-flights]][[[weather][type-link][flight-weather * alternate-prediction-at-takeoff]]][[weather][base-field][prediction.wind-speed]]]
p1086
(dp1087
Vtype
p1088
Vnumber
p1089
sg12
g13
sVid
p1090
g1086
sVname
p1091
VAlternate Forecast at Takeoff: Wind Speed (kts)
p1092
ssV[-hub-][field][[[ems-core][entity-type][foqa-flights]][[[weather][type-link][flight-weather * landing-prediction-at-dispatch]]][[weather][base-field][prediction.raw-text]]]
p1093
(dp1094
Vtype
p1095
Vstring
p1096
sg12
g13
sVid
p1097
g1093
sVname
p1098
VPlanned Landing Forecast at Dispatch: Raw Text
p1099
ssV[-hub-][field][[[ems-core][entity-type][foqa-flights]][[crew-contact][base-field][pnf---hours-on-type]]]
p1100
(dp1101
Vtype
p1102
Vnumber
p1103
sg12
g13
sVid
p1104
g1100
sVname
p1105
VPNF - Hours in Type
p1106
ssV[-hub-][field][[[ems-core][entity-type][foqa-flights]][[[nav][type-link][runway-takeoff * foqa-flights]][[nav][type-link][flight-runway * dme]]][[nav][base-field][nav-navaid.latitude]]]
p1107
(dp1108
Vtype
p1109
Vnumber
p1110
sg12
g13
sVid
p1111
g1107
sVname
p1112
VTakeoff DME Latitude
p1113
ssV[-hub-][field][[[ems-core][entity-type][foqa-flights]][[ems-core][base-field][flight-nav.takeoff-rwy-mag-hdg]]]
p1114
(dp1115
Vtype
p1116
Vnumber
p1117
sg12
g13
sVid
p1118
g1114
sVname
p1119
VTakeoff Runway Magnetic Heading (deg)
p1120
ssV[-hub-][field][[[ems-core][entity-type][foqa-flights]][[[weather][type-link][flight-weather * alternate-prediction-at-takeoff]]][[weather][base-field][prediction.wind-dir]]]
p1121
(dp1122
Vtype
p1123
Vnumber
p1124
sg12
g13
sVid
p1125
g1121
sVname
p1126
VAlternate Forecast at Takeoff: Wind Direction (deg)
p1127
ssV[-hub-][field][[[ems-core][entity-type][foqa-flights]][[[weather][type-link][foqa-flights * landing-weather]]][[weather][base-field][metar.dewpoint]]]
p1128
(dp1129
Vtype
p1130
Vnumber
p1131
sg12
g13
sVid
p1132
g1128
sVname
p1133
VLanding Dewpoint (deg C)
p1134
ssV[-hub-][field][[[ems-core][entity-type][foqa-flights]][[[weather][type-link][flight-weather * alternate-prediction-at-landing]]][[weather][base-field][prediction.uid]]]
p1135
(dp1136
Vtype
p1137
Vnumber
p1138
sg12
g13
sVid
p1139
g1135
sVname
p1140
VAlternate Forecast at Diversion: Prediction Record
p1141
ssV[-hub-][field][[[ems-core][entity-type][foqa-flights]][[ems-core][base-field][flight.runway-takeoff-fdw]]]
p1142
(dp1143
Vtype
p1144
Vnumber
p1145
sg12
g13
sVid
p1146
g1142
sVname
p1147
VTakeoff Runway FDW ID Number
p1148
ssV[-hub-][field][[[ems-core][entity-type][foqa-flights]][[[weather][type-link][flight-weather * landing-prediction-at-dispatch]]][[weather][base-field][prediction.stop-time]]]
p1149
(dp1150
Vtype
p1151
VdateTime
p1152
sg12
g13
sVid
p1153
g1149
sVname
p1154
VPlanned Landing Forecast at Dispatch: Stop Time
p1155
ssV[-hub-][field][[[ems-core][entity-type][foqa-flights]][[[nav][type-link][runway-landing * foqa-flights]]][[nav][base-field][nav-runway.slope]]]
p1156
(dp1157
Vtype
p1158
Vnumber
p1159
sg12
g13
sVid
p1160
g1156
sVname
p1161
VLanding Runway Slope (%)
p1162
ssV[-hub-][field-group][[[ems-core][entity-type][foqa-flights]][[[ems-core][type-link][downloads * flights]]][[ems-core][internal-field-group][download-info]]]
p1163
(dp1164
g12
g54
sVid
p1165
g1163
sVname
p1166
VDownload Information
p1167
ssV[-hub-][field][[[ems-core][entity-type][foqa-flights]][[[nav][type-link][runway-landing * foqa-flights]]][[nav][base-field][nav-runway.omark-latitude]]]
p1168
(dp1169
Vtype
p1170
Vnumber
p1171
sg12
g13
sVid
p1172
g1168
sVname
p1173
VLanding Outer Marker Latitude
p1174
ssV[-hub-][field][[[ems-core][entity-type][foqa-flights]][[[nav][type-link][runway-landing * foqa-flights]]][[nav][base-field][nav-runway.gs-angle]]]
p1175
(dp1176
Vtype
p1177
Vnumber
p1178
sg12
g13
sVid
p1179
g1175
sVname
p1180
VLanding Glideslope Angle (deg)
p1181
ssV[-hub-][field][[[ems-core][entity-type][foqa-flights]][[data-fusion][base-field][metar-takeoff-data-available]]]
p1182
(dp1183
Vtype
p1184
Vdiscrete
p1185
sg12
g13
sVid
p1186
g1182
sVname
p1187
VMETAR Takeoff Data Available
p1188
ssV[-hub-][field][[[ems-core][entity-type][foqa-flights]][[[weather][type-link][flight-weather * takeoff-prediction-at-dispatch]]][[weather][base-field][prediction.uid]]]
p1189
(dp1190
Vtype
p1191
Vnumber
p1192
sg12
g13
sVid
p1193
g1189
sVname
p1194
VTakeoff Forecast at Dispatch: Prediction Record
p1195
ssV[-hub-][field][[[ems-core][entity-type][foqa-flights]][[crew-contact][base-field][familiarity]]]
p1196
(dp1197
Vtype
p1198
Vdiscrete
p1199
sg12
g13
sVid
p1200
g1196
sVname
p1201
VFamiliarity
p1202
ssV[-hub-][field][[[ems-core][entity-type][foqa-flights]][[[weather][type-link][flight-weather * alternate-prediction-at-dispatch]]][[weather][base-field][prediction.raw-text]]]
p1203
(dp1204
Vtype
p1205
Vstring
p1206
sg12
g13
sVid
p1207
g1203
sVname
p1208
VAlternate Forecast at Dispatch: Raw Text
p1209
ssV[-hub-][field][[[ems-core][entity-type][foqa-flights]][[[nav][type-link][runway-takeoff * foqa-flights]]][[nav][base-field][nav-runway.slope]]]
p1210
(dp1211
Vtype
p1212
Vnumber
p1213
sg12
g13
sVid
p1214
g1210
sVname
p1215
VTakeoff Runway Slope (%)
p1216
ssV[-hub-][field][[[ems-core][entity-type][foqa-flights]][[domestic-international-flight-flag][base-field][is-domestic-flight]]]
p1217
(dp1218
Vtype
p1219
Vdiscrete
p1220
sg12
g13
sVid
p1221
g1217
sVname
p1222
VDomestic or International Flight
p1223
ssV[-hub-][field-group][[[ems-core][entity-type][foqa-flights]][[ems-core][internal-field-group][aircraft-info]]]
p1224
(dp1225
g12
g54
sVid
p1226
g1224
sVname
p1227
VAircraft Information
p1228
ssV[-hub-][field][[[ems-core][entity-type][foqa-flights]][[[weather][type-link][flight-weather * alternate-prediction-at-landing]]][[weather][base-field][prediction.stop-time]]]
p1229
(dp1230
Vtype
p1231
VdateTime
p1232
sg12
g13
sVid
p1233
g1229
sVname
p1234
VAlternate Forecast at Diversion: Stop Time
p1235
ssV[-hub-][field][[[ems-core][entity-type][foqa-flights]][[ems-core][base-field][flight.airport-takeoff-fdw]]]
p1236
(dp1237
Vtype
p1238
Vnumber
p1239
sg12
g13
sVid
p1240
g1236
sVname
p1241
VTakeoff Airport FDW ID Number
p1242
ssV[-hub-][field][[[ems-core][entity-type][foqa-flights]][[[nav][type-link][airport-takeoff * foqa-flights]]][[nav][base-field][nav-airport.state-string]]]
p1243
(dp1244
Vtype
p1245
Vstring
p1246
sg12
g13
sVid
p1247
g1243
sVname
p1248
VTakeoff Airport State
p1249
ssV[-hub-][field][[[ems-core][entity-type][foqa-flights]][[[weather][type-link][foqa-flights * takeoff-weather]]][[weather][base-field][metar.temperature]]]
p1250
(dp1251
Vtype
p1252
Vnumber
p1253
sg12
g13
sVid
p1254
g1250
sVname
p1255
VTakeoff Temperature (deg C)
p1256
ssV[-hub-][field][[[ems-core][entity-type][foqa-flights]][[[weather][type-link][flight-weather * takeoff-prediction-at-dispatch]][[weather][type-link][taf-predictions * taf-records]]][[weather][base-field][taf.validity-start]]]
p1257
(dp1258
Vtype
p1259
VdateTime
p1260
sg12
g13
sVid
p1261
g1257
sVname
p1262
VTakeoff Forecast at Dispatch: Valid From
p1263
ssV[-hub-][field][[[ems-core][entity-type][foqa-flights]][[ems-core][base-field][flight.fleet]]]
p1264
(dp1265
Vtype
p1266
Vdiscrete
p1267
sg12
g13
sVid
p1268
g1264
sVname
p1269
VFleet
p1270
ssV[-hub-][field][[[ems-core][entity-type][foqa-flights]][[[weather][type-link][flight-weather * landing-prediction-at-dispatch]][[weather][type-link][taf-predictions * taf-records]]][[weather][base-field][taf.header-text]]]
p1271
(dp1272
Vtype
p1273
Vstring
p1274
sg12
g13
sVid
p1275
g1271
sVname
p1276
VPlanned Landing Forecast at Dispatch: Header Text
p1277
ssV[-hub-][field][[[ems-core][entity-type][foqa-flights]][[crew-contact][base-field][pilot-not-flying]]]
p1278
(dp1279
Vtype
p1280
Vdiscrete
p1281
sg12
g13
sVid
p1282
g1278
sVname
p1283
VPilot Not Flying
p1284
ssV[-hub-][field][[[ems-core][entity-type][foqa-flights]][[[weather][type-link][flight-weather * alternate-prediction-at-takeoff]]][[weather][base-field][prediction.stop-time]]]
p1285
(dp1286
Vtype
p1287
VdateTime
p1288
sg12
g13
sVid
p1289
g1285
sVname
p1290
VAlternate Forecast at Takeoff: Stop Time
p1291
ssV[-hub-][field][[[ems-core][entity-type][foqa-flights]][[[nav][type-link][runway-landing * foqa-flights]]][[nav][base-field][nav-runway.landing-dist]]]
p1292
(dp1293
Vtype
p1294
Vnumber
p1295
sg12
g13
sVid
p1296
g1292
sVname
p1297
VLanding Runway Landing Distance (ft)
p1298
ssV[-hub-][field][[[ems-core][entity-type][foqa-flights]][[[weather][type-link][flight-weather * landing-prediction-at-dispatch]]][[weather][base-field][prediction.uid]]]
p1299
(dp1300
Vtype
p1301
Vnumber
p1302
sg12
g13
sVid
p1303
g1299
sVname
p1304
VPlanned Landing Forecast at Dispatch: Prediction Record
p1305
ssV[-hub-][field][[[ems-core][entity-type][foqa-flights]][[[weather][type-link][flight-weather * landing-prediction-at-takeoff]]][[weather][base-field][prediction.wind-speed]]]
p1306
(dp1307
Vtype
p1308
Vnumber
p1309
sg12
g13
sVid
p1310
g1306
sVname
p1311
VPlanned Landing Forecast at Takeoff: Wind Speed (kts)
p1312
ssV[-hub-][field][[[ems-core][entity-type][foqa-flights]][[[weather][type-link][flight-weather * takeoff-prediction-at-dispatch]][[weather][type-link][taf-predictions * taf-records]]][[weather][base-field][taf.issue-time]]]
p1313
(dp1314
Vtype
p1315
VdateTime
p1316
sg12
g13
sVid
p1317
g1313
sVname
p1318
VTakeoff Forecast at Dispatch: Issued At
p1319
ssV[-hub-][field-group][[[ems-core][entity-type][foqa-flights]][[profile-16-extra-fields][internal-field-group][profile-16-extra-data]]]
p1320
(dp1321
g12
g54
sVid
p1322
g1320
sVname
p1323
VProfile 16 Extra Data
p1324
ssV[-hub-][field][[[ems-core][entity-type][foqa-flights]][[[nav][type-link][runway-landing * foqa-flights]]][[nav][base-field][nav-runway.longitude-start]]]
p1325
(dp1326
Vtype
p1327
Vnumber
p1328
sg12
g13
sVid
p1329
g1325
sVname
p1330
VLanding Runway Starting Longitude
p1331
ssV[-hub-][field][[[ems-core][entity-type][foqa-flights]][[ems-core][base-field][flight.masked-date]]]
p1332
(dp1333
Vtype
p1334
VdateTime
p1335
sg12
g13
sVid
p1336
g1332
sVname
p1337
VFlight Date (Month/Year)
p1338
ssV[-hub-][field][[[ems-core][entity-type][foqa-flights]][[[nav][type-link][runway-takeoff * foqa-flights]]][[nav][base-field][nav-runway.loc-width]]]
p1339
(dp1340
Vtype
p1341
Vnumber
p1342
sg12
g13
sVid
p1343
g1339
sVname
p1344
VTakeoff Localizer Course Width (deg)
p1345
ssV[-hub-][field][[[ems-core][entity-type][foqa-flights]][[odw-logical][base-field][fdw-flight-odw-link.odw-flight]]]
p1346
(dp1347
Vtype
p1348
Vnumber
p1349
sg12
g13
sVid
p1350
g1346
sVname
p1351
VMatched ODW Flight Record
p1352
ssV[-hub-][field-group][[[ems-core][entity-type][foqa-flights]][[weather][internal-field-group][wx-alternate-prediction-at-dispatch]]]
p1353
(dp1354
g12
g54
sVid
p1355
g1353
sVname
p1356
VAlternate Forecast at Dispatch
p1357
ssV[-hub-][field][[[ems-core][entity-type][foqa-flights]][[[weather][type-link][flight-weather * landing-prediction-at-dispatch]][[weather][type-link][taf-predictions * taf-records]]][[weather][base-field][taf.validity-stop]]]
p1358
(dp1359
Vtype
p1360
VdateTime
p1361
sg12
g13
sVid
p1362
g1358
sVname
p1363
VPlanned Landing Forecast at Dispatch: Valid Until
p1364
ssV[-hub-][field-group][[[ems-core][entity-type][foqa-flights]][[ems-core][internal-field-group][nav-info-landing-airport]]]
p1365
(dp1366
g12
g54
sVid
p1367
g1365
sVname
p1368
VAirport
p1369
ssV[-hub-][field][[[ems-core][entity-type][foqa-flights]][[block-cost-model][base-field][gross-weight-available]]]
p1370
(dp1371
Vtype
p1372
Vdiscrete
p1373
sg12
g13
sVid
p1374
g1370
sVname
p1375
VGross Weight Available
p1376
ssV[-hub-][field-group][[[ems-core][entity-type][foqa-flights]][[ems-core][internal-field-group][nav-info-landing-rwy]]]
p1377
(dp1378
g12
g54
sVid
p1379
g1377
sVname
p1380
VRunway
p1381
ssV[-hub-][field][[[ems-core][entity-type][foqa-flights]][[ems-core][base-field][flight.transition-landing]]]
p1382
(dp1383
Vtype
p1384
Vstring
p1385
sg12
g13
sVid
p1386
g1382
sVname
p1387
VArrival Transition
p1388
ssV[-hub-][field-group][[[ems-core][entity-type][foqa-flights]][[ems-core][internal-field-group][nav-info-landing]]]
p1389
(dp1390
g12
g54
sVid
p1391
g1389
sVname
p1392
VLanding
p1393
ssV[-hub-][field][[[ems-core][entity-type][foqa-flights]][[[nav][type-link][runway-landing * foqa-flights]]][[nav][base-field][nav-runway.ILSBearing-course]]]
p1394
(dp1395
Vtype
p1396
Vnumber
p1397
sg12
g13
sVid
p1398
g1394
sVname
p1399
VLanding ILS Bearing Course (deg)
p1400
ssV[-hub-][field][[[ems-core][entity-type][foqa-flights]][[duplicate-detection][base-field][number-of-partners]]]
p1401
(dp1402
Vtype
p1403
Vnumber
p1404
sg12
g13
sVid
p1405
g1401
sVname
p1406
VNumber of Partners
p1407
ssV[-hub-][field][[[ems-core][entity-type][foqa-flights]][[esn-information][base-field][esn--left-outbd-]]]
p1408
(dp1409
Vtype
p1410
Vstring
p1411
sg12
g13
sVid
p1412
g1408
sVname
p1413
VESN (Left Outbd)
p1414
ssV[-hub-][field][[[ems-core][entity-type][foqa-flights]][[[nav][type-link][airport-takeoff * foqa-flights]]][[nav][base-field][nav-airport.elevation]]]
p1415
(dp1416
Vtype
p1417
Vnumber
p1418
sg12
g13
sVid
p1419
g1415
sVname
p1420
VTakeoff Airport Elevation (ft)
p1421
ssV[-hub-][field][[[ems-core][entity-type][foqa-flights]][[[nav][type-link][airport-takeoff * foqa-flights]]][[nav][base-field][nav-airport.iata-code]]]
p1422
(dp1423
Vtype
p1424
Vstring
p1425
sg12
g13
sVid
p1426
g1422
sVname
p1427
VTakeoff Airport IATA Code
p1428
ssV[-hub-][field][[[ems-core][entity-type][foqa-flights]][[[weather][type-link][flight-weather * landing-prediction-at-takeoff]][[weather][type-link][taf-predictions * taf-records]]][[weather][base-field][taf.validity-stop]]]
p1429
(dp1430
Vtype
p1431
VdateTime
p1432
sg12
g13
sVid
p1433
g1429
sVname
p1434
VPlanned Landing Forecast at Takeoff: Valid Until
p1435
ssV[-hub-][field][[[ems-core][entity-type][foqa-flights]][[ems-core][base-field][flight-nav.landing-rwy-mag-hdg]]]
p1436
(dp1437
Vtype
p1438
Vnumber
p1439
sg12
g13
sVid
p1440
g1436
sVname
p1441
VLanding Runway Magnetic Heading (deg)
p1442
ssV[-hub-][field][[[ems-core][entity-type][foqa-flights]][[[nav][type-link][runway-takeoff * foqa-flights]][[nav][type-link][flight-runway * localizer]]][[nav][base-field][nav-navaid.latitude]]]
p1443
(dp1444
Vtype
p1445
Vnumber
p1446
sg12
g13
sVid
p1447
g1443
sVname
p1448
VTakeoff Localizer Latitude
p1449
ssV[-hub-][field][[[ems-core][entity-type][foqa-flights]][[[weather][type-link][flight-weather * landing-prediction-at-dispatch]]][[weather][base-field][prediction.start-time]]]
p1450
(dp1451
Vtype
p1452
VdateTime
p1453
sg12
g13
sVid
p1454
g1450
sVname
p1455
VPlanned Landing Forecast at Dispatch: Start Time
p1456
ssV[-hub-][field-group][[[ems-core][entity-type][foqa-flights]][[ems-dal-fdwflightconstantsfromodw][internal-field-group][f0000000-f000-f000-f000-f00000000000]]]
p1457
(dp1458
g12
g54
sVid
p1459
g1457
sVname
p1460
VOperational Information
p1461
ssV[-hub-][field-group][[[ems-core][entity-type][foqa-flights]][[data-quality][internal-field-group][data-quality]]]
p1462
(dp1463
g12
g54
sVid
p1464
g1462
sVname
p1465
VData Quality
p1466
ssV[-hub-][field][[[ems-core][entity-type][foqa-flights]][[[weather][type-link][flight-weather * alternate-prediction-at-landing]]][[weather][base-field][prediction.wind-dir]]]
p1467
(dp1468
Vtype
p1469
Vnumber
p1470
sg12
g13
sVid
p1471
g1467
sVname
p1472
VAlternate Forecast at Diversion: Wind Direction (deg)
p1473
ssV[-hub-][field-group][[[ems-core][entity-type][foqa-flights]][[[nav][type-link][runway-landing * foqa-flights]]][[nav][internal-field-group][landing-rwy-geometry-info]]]
p1474
(dp1475
g12
g54
sVid
p1476
g1474
sVname
p1477
VGeometry
p1478
ssV[-hub-][field][[[ems-core][entity-type][foqa-flights]][[block-cost-model][base-field][normalized-btm-residual]]]
p1479
(dp1480
Vtype
p1481
Vnumber
p1482
sg12
g13
sVid
p1483
g1479
sVname
p1484
VNormalized BTM Residual
p1485
ssV[-hub-][field][[[ems-core][entity-type][foqa-flights]][[esn-information][base-field][tail-esn--left-outbd-]]]
p1486
(dp1487
Vtype
p1488
Vstring
p1489
sg12
g13
sVid
p1490
g1486
sVname
p1491
VTail ESN (Left Outbd)
p1492
ssV[-hub-][field][[[ems-core][entity-type][foqa-flights]][[ems-core][base-field][flight.raw-data-file-size]]]
p1493
(dp1494
Vtype
p1495
Vnumber
p1496
sg12
g13
sVid
p1497
g1493
sVname
p1498
VRaw Data File Size (MB)
p1499
ssV[-hub-][field][[[ems-core][entity-type][foqa-flights]][[ems-core][base-field][flight.flight-num-int]]]
p1500
(dp1501
Vtype
p1502
Vnumber
p1503
sg12
g13
sVid
p1504
g1500
sVname
p1505
VFlight Number
p1506
ssV[-hub-][field][[[ems-core][entity-type][foqa-flights]][[[nav][type-link][runway-landing * foqa-flights]]][[nav][base-field][nav-runway.stopway]]]
p1507
(dp1508
Vtype
p1509
Vnumber
p1510
sg12
g13
sVid
p1511
g1507
sVname
p1512
VLanding Stopway Length (ft)
p1513
ssV[-hub-][field][[[ems-core][entity-type][foqa-flights]][[[weather][type-link][foqa-flights * landing-weather]]][[weather][base-field][metar.visibility]]]
p1514
(dp1515
Vtype
p1516
Vnumber
p1517
sg12
g13
sVid
p1518
g1514
sVname
p1519
VLanding Visibility (sm)
p1520
ssV[-hub-][field][[[ems-core][entity-type][foqa-flights]][[[weather][type-link][flight-weather * landing-prediction-at-takeoff]][[weather][type-link][taf-predictions * taf-records]]][[weather][base-field][taf.validity-start]]]
p1521
(dp1522
Vtype
p1523
VdateTime
p1524
sg12
g13
sVid
p1525
g1521
sVname
p1526
VPlanned Landing Forecast at Takeoff: Valid From
p1527
ssV[-hub-][field][[[ems-core][entity-type][foqa-flights]][[[nav][type-link][airport-landing * foqa-flights]]][[nav][base-field][nav-airport.longitude]]]
p1528
(dp1529
Vtype
p1530
Vnumber
p1531
sg12
g13
sVid
p1532
g1528
sVname
p1533
VLanding Airport Longitude
p1534
ssV[-hub-][field][[[ems-core][entity-type][foqa-flights]][[[weather][type-link][flight-weather * alternate-prediction-at-dispatch]][[weather][type-link][taf-predictions * taf-records]]][[weather][base-field][taf.validity-start]]]
p1535
(dp1536
Vtype
p1537
VdateTime
p1538
sg12
g13
sVid
p1539
g1535
sVname
p1540
VAlternate Forecast at Dispatch: Valid From
p1541
ssV[-hub-][field-group][[[ems-core][entity-type][foqa-flights]][[weather][internal-field-group][wx-takeoff-prediction-at-dispatch]]]
p1542
(dp1543
g12
g54
sVid
p1544
g1542
sVname
p1545
VTakeoff Forecast at Dispatch
p1546
ssV[-hub-][field][[[ems-core][entity-type][foqa-flights]][[[nav][type-link][runway-landing * foqa-flights]]][[nav][base-field][nav-runway.backcourse-loc-frequency]]]
p1547
(dp1548
Vtype
p1549
Vnumber
p1550
sg12
g13
sVid
p1551
g1547
sVname
p1552
VLanding Localizer Frequency (Backcourse) (MHz)
p1553
ssV[ems-core][entity-type][foqa-flights]
p1554
(dp1555
S'name'
p1556
VFDW Flight
p1557
sg12
S'database'
p1558
sVid
p1559
g1554
sVsingularName
p1560
g1557
sVpluralName
p1561
VFDW Flights
p1562
ssV[-hub-][field][[[ems-core][entity-type][foqa-flights]][[[weather][type-link][foqa-flights * landing-weather]]][[weather][base-field][metar.wind-dir]]]
p1563
(dp1564
Vtype
p1565
Vnumber
p1566
sg12
g13
sVid
p1567
g1563
sVname
p1568
VLanding Wind Direction (deg)
p1569
ssV[-hub-][field-group][[[ems-core][entity-type][foqa-flights]][[[nav][type-link][runway-landing * foqa-flights]]][[nav][internal-field-group][landing-rwy-ils-info]]]
p1570
(dp1571
g12
g54
sVid
p1572
g1570
sVname
p1573
VILS
p1574
ssV[-hub-][field][[[ems-core][entity-type][foqa-flights]][[data-fusion][base-field][metar-landing-data-available]]]
p1575
(dp1576
Vtype
p1577
Vdiscrete
p1578
sg12
g13
sVid
p1579
g1575
sVname
p1580
VMETAR Landing Data Available
p1581
ssV[-hub-][field][[[ems-core][entity-type][foqa-flights]][[esn-information][base-field][esn--right-outbd-]]]
p1582
(dp1583
Vtype
p1584
Vstring
p1585
sg12
g13
sVid
p1586
g1582
sVname
p1587
VESN (Right Outbd)
p1588
ssV[-hub-][field][[[ems-core][entity-type][foqa-flights]][[data-fusion][base-field][flight-plan-waypoint-data-available]]]
p1589
(dp1590
Vtype
p1591
Vdiscrete
p1592
sg12
g13
sVid
p1593
g1589
sVname
p1594
VFlight Plan Waypoint Data Available
p1595
ssV[-hub-][field][[[ems-core][entity-type][foqa-flights]][[[nav][type-link][runway-landing * foqa-flights]]][[nav][base-field][nav-runway.mmark-elevation]]]
p1596
(dp1597
Vtype
p1598
Vnumber
p1599
sg12
g13
sVid
p1600
g1596
sVname
p1601
VLanding Middle Marker Elevation (ft)
p1602
ssV[-hub-][field][[[ems-core][entity-type][foqa-flights]][[[nav][type-link][runway-landing * foqa-flights]]][[nav][base-field][nav-runway.elevation-start]]]
p1603
(dp1604
Vtype
p1605
Vnumber
p1606
sg12
g13
sVid
p1607
g1603
sVname
p1608
VLanding Runway Starting Elevation (ft)
p1609
ssV[-hub-][field][[[ems-core][entity-type][foqa-flights]][[[weather][type-link][flight-weather * landing-prediction-at-dispatch]][[weather][type-link][taf-predictions * taf-records]]][[weather][base-field][taf.issue-time]]]
p1610
(dp1611
Vtype
p1612
VdateTime
p1613
sg12
g13
sVid
p1614
g1610
sVname
p1615
VPlanned Landing Forecast at Dispatch: Issued At
p1616
ssV[-hub-][field][[[ems-core][entity-type][foqa-flights]][[[nav][type-link][runway-landing * foqa-flights]]][[nav][base-field][nav-runway.omark-elevation]]]
p1617
(dp1618
Vtype
p1619
Vnumber
p1620
sg12
g13
sVid
p1621
g1617
sVname
p1622
VLanding Outer Marker Elevation (ft)
p1623
ssV[-hub-][field][[[ems-core][entity-type][foqa-flights]][[[nav][type-link][runway-takeoff * foqa-flights]]][[nav][base-field][nav-runway.parallel]]]
p1624
(dp1625
Vtype
p1626
Vboolean
p1627
sg12
g13
sVid
p1628
g1624
sVname
p1629
VTakeoff Is Parallel
p1630
ssV[-hub-][field][[[ems-core][entity-type][foqa-flights]][[data-quality][base-field][parameter-validation-(0-188)-tests]]]
p1631
(dp1632
Vtype
p1633
Vdiscrete
p1634
sg12
g13
sVid
p1635
g1631
sVname
p1636
VParameter Validation (0-188) Tests
p1637
ssV[-hub-][field][[[ems-core][entity-type][foqa-flights]][[ems-core][base-field][flight.weather-landing-delta]]]
p1638
(dp1639
Vtype
p1640
Vnumber
p1641
sg12
g13
sVid
p1642
g1638
sVname
p1643
VLanding Observation Time Delta (minutes before touchdown)
p1644
ssV[-hub-][field][[[ems-core][entity-type][foqa-flights]][[[ems-aux][type-link][flights * fleets]]][[ems-aux][base-field][fleet.config-type]]]
p1645
(dp1646
Vtype
p1647
Vdiscrete
p1648
sg12
g13
sVid
p1649
g1645
sVname
p1650
VFlight Configuration Type
p1651
ssV[-hub-][field][[[ems-core][entity-type][foqa-flights]][[[weather][type-link][flight-weather * alternate-prediction-at-takeoff]]][[weather][base-field][prediction.raw-text]]]
p1652
(dp1653
Vtype
p1654
Vstring
p1655
sg12
g13
sVid
p1656
g1652
sVname
p1657
VAlternate Forecast at Takeoff: Raw Text
p1658
ssV[-hub-][field][[[ems-core][entity-type][foqa-flights]][[[nav][type-link][runway-landing * foqa-flights]]][[nav][base-field][nav-runway.omark-longitude]]]
p1659
(dp1660
Vtype
p1661
Vnumber
p1662
sg12
g13
sVid
p1663
g1659
sVname
p1664
VLanding Outer Marker Longitude
p1665
ssV[-hub-][field][[[ems-core][entity-type][foqa-flights]][[[nav][type-link][runway-landing * foqa-flights]]][[nav][base-field][nav-runway.loc-width]]]
p1666
(dp1667
Vtype
p1668
Vnumber
p1669
sg12
g13
sVid
p1670
g1666
sVname
p1671
VLanding Localizer Course Width (deg)
p1672
ssV[-hub-][field][[[ems-core][entity-type][foqa-flights]][[block-cost-model][base-field][fuel-quantity-available]]]
p1673
(dp1674
Vtype
p1675
Vdiscrete
p1676
sg12
g13
sVid
p1677
g1673
sVname
p1678
VFuel Quantity Available
p1679
ssV[-hub-][field-group][[[ems-core][entity-type][foqa-flights]][[[nav][type-link][runway-takeoff * foqa-flights]]][[nav][internal-field-group][takeoff-rwy-id-info]]]
p1680
(dp1681
g12
g54
sVid
p1682
g1680
sVname
p1683
VID
p1684
ssV[-hub-][field][[[ems-core][entity-type][foqa-flights]][[[nav][type-link][runway-landing * foqa-flights]][[nav][type-link][flight-runway * localizer]]][[nav][base-field][nav-navaid.latitude]]]
p1685
(dp1686
Vtype
p1687
Vnumber
p1688
sg12
g13
sVid
p1689
g1685
sVname
p1690
VLanding Localizer Latitude
p1691
ssV[-hub-][field][[[ems-core][entity-type][foqa-flights]][[[weather][type-link][foqa-flights * landing-weather]]][[weather][base-field][metar.ceiling]]]
p1692
(dp1693
Vtype
p1694
Vnumber
p1695
sg12
g13
sVid
p1696
g1692
sVname
p1697
VLanding Ceiling (ft)
p1698
ssV[-hub-][field][[[ems-core][entity-type][foqa-flights]][[[nav][type-link][runway-takeoff * foqa-flights]]][[nav][base-field][nav-runway.width]]]
p1699
(dp1700
Vtype
p1701
Vnumber
p1702
sg12
g13
sVid
p1703
g1699
sVname
p1704
VTakeoff Runway Width (ft)
p1705
ssV[-hub-][field][[[ems-core][entity-type][foqa-flights]][[[weather][type-link][flight-weather * alternate-prediction-at-dispatch]]][[weather][base-field][prediction.start-time]]]
p1706
(dp1707
Vtype
p1708
VdateTime
p1709
sg12
g13
sVid
p1710
g1706
sVname
p1711
VAlternate Forecast at Dispatch: Start Time
p1712
ssV[-hub-][field][[[ems-core][entity-type][foqa-flights]][[duplicate-detection][base-field][all-duplicate-partners-at-processing-time]]]
p1713
(dp1714
Vtype
p1715
Vstring
p1716
sg12
g13
sVid
p1717
g1713
sVname
p1718
VAll Duplicate Partners At Processing Time
p1719
ssV[-hub-][field][[[ems-core][entity-type][foqa-flights]][[[nav][type-link][runway-landing * foqa-flights]][[nav][type-link][flight-runway * localizer]]][[nav][base-field][nav-navaid.elevation]]]
p1720
(dp1721
Vtype
p1722
Vnumber
p1723
sg12
g13
sVid
p1724
g1720
sVname
p1725
VLanding Localizer Elevation (ft)
p1726
ssV[-hub-][field][[[ems-core][entity-type][foqa-flights]][[[nav][type-link][runway-takeoff * foqa-flights]]][[nav][base-field][nav-runway.latitude-start]]]
p1727
(dp1728
Vtype
p1729
Vnumber
p1730
sg12
g13
sVid
p1731
g1727
sVname
p1732
VTakeoff Runway Starting Latitude
p1733
ssV[-hub-][field][[[ems-core][entity-type][foqa-flights]][[data-quality][base-field][manual-review]]]
p1734
(dp1735
Vtype
p1736
Vdiscrete
p1737
sg12
g13
sVid
p1738
g1734
sVname
p1739
VManual Review
p1740
ssV[-hub-][field][[[ems-core][entity-type][foqa-flights]][[ems-core][base-field][flight.exist-landing]]]
p1741
(dp1742
Vtype
p1743
Vboolean
p1744
sg12
g13
sVid
p1745
g1741
sVname
p1746
VLanding Valid
p1747
ssV[-hub-][field][[[ems-core][entity-type][foqa-flights]][[ems-core][base-field][flight.hours]]]
p1748
(dp1749
Vtype
p1750
Vnumber
p1751
sg12
g13
sVid
p1752
g1748
sVname
p1753
VHours of Data
p1754
ssV[-hub-][field][[[ems-core][entity-type][foqa-flights]][[[nav][type-link][runway-landing * foqa-flights]]][[nav][base-field][nav-runway.threshold-to-glideslope-distance]]]
p1755
(dp1756
Vtype
p1757
Vnumber
p1758
sg12
g13
sVid
p1759
g1755
sVname
p1760
VLanding Threshold To Glideslope Distance (ft)
p1761
ssV[-hub-][field][[[ems-core][entity-type][foqa-flights]][[duplicate-detection][base-field][duplicate-comments]]]
p1762
(dp1763
Vtype
p1764
Vstring
p1765
sg12
g13
sVid
p1766
g1762
sVname
p1767
VDuplicate Comments
p1768
ssV[-hub-][field][[[ems-core][entity-type][foqa-flights]][[[weather][type-link][flight-weather * takeoff-prediction-at-dispatch]]][[weather][base-field][prediction.raw-text]]]
p1769
(dp1770
Vtype
p1771
Vstring
p1772
sg12
g13
sVid
p1773
g1769
sVname
p1774
VTakeoff Forecast at Dispatch: Raw Text
p1775
ssV[-hub-][field][[[ems-core][entity-type][foqa-flights]][[data-fusion][base-field][metar-takeoff-data-validated]]]
p1776
(dp1777
Vtype
p1778
Vdiscrete
p1779
sg12
g13
sVid
p1780
g1776
sVname
p1781
VMETAR Takeoff Data Validated
p1782
ssV[-hub-][field][[[ems-core][entity-type][foqa-flights]][[[nav][type-link][runway-takeoff * foqa-flights]][[nav][type-link][flight-runway * localizer]]][[nav][base-field][nav-navaid.longitude]]]
p1783
(dp1784
Vtype
p1785
Vnumber
p1786
sg12
g13
sVid
p1787
g1783
sVname
p1788
VTakeoff Localizer Longitude
p1789
ssV[-hub-][field][[[ems-core][entity-type][foqa-flights]][[[weather][type-link][foqa-flights * takeoff-weather]]][[weather][base-field][metar.wind-speed]]]
p1790
(dp1791
Vtype
p1792
Vnumber
p1793
sg12
g13
sVid
p1794
g1790
sVname
p1795
VTakeoff Wind Speed (kts)
p1796
ssV[-hub-][field][[[ems-core][entity-type][foqa-flights]][[[nav][type-link][runway-landing * foqa-flights]]][[nav][base-field][nav-runway.gs-latitude]]]
p1797
(dp1798
Vtype
p1799
Vnumber
p1800
sg12
g13
sVid
p1801
g1797
sVname
p1802
VLanding Glideslope Latitude
p1803
ssV[-hub-][field][[[ems-core][entity-type][foqa-flights]][[[weather][type-link][flight-weather * alternate-prediction-at-landing]]][[weather][base-field][prediction.start-time]]]
p1804
(dp1805
Vtype
p1806
VdateTime
p1807
sg12
g13
sVid
p1808
g1804
sVname
p1809
VAlternate Forecast at Diversion: Start Time
p1810
ssV[-hub-][field][[[ems-core][entity-type][foqa-flights]][[duplicate-detection][base-field][manual-review]]]
p1811
(dp1812
Vtype
p1813
Vdiscrete
p1814
sg12
g13
sVid
p1815
g1811
sVname
p1816
VManual Review
p1817
ssV[-hub-][field][[[ems-core][entity-type][foqa-flights]][[[weather][type-link][flight-weather * alternate-prediction-at-landing]][[weather][type-link][taf-predictions * taf-records]]][[weather][base-field][taf.validity-start]]]
p1818
(dp1819
Vtype
p1820
VdateTime
p1821
sg12
g13
sVid
p1822
g1818
sVname
p1823
VAlternate Forecast at Diversion: Valid From
p1824
ssV[-hub-][field][[[ems-core][entity-type][foqa-flights]][[[weather][type-link][flight-weather * alternate-prediction-at-dispatch]][[weather][type-link][taf-predictions * taf-records]]][[weather][base-field][taf.import-id]]]
p1825
(dp1826
Vtype
p1827
Vnumber
p1828
sg12
g13
sVid
p1829
g1825
sVname
p1830
VAlternate Forecast at Dispatch: Import ID
p1831
ssV[-hub-][field][[[ems-core][entity-type][foqa-flights]][[[nav][type-link][airport-landing * foqa-flights]]][[nav][base-field][nav-airport.elevation]]]
p1832
(dp1833
Vtype
p1834
Vnumber
p1835
sg12
g13
sVid
p1836
g1832
sVname
p1837
VLanding Airport Elevation (ft)
p1838
ssV[-hub-][field][[[ems-core][entity-type][foqa-flights]][[[weather][type-link][flight-weather * takeoff-prediction-at-dispatch]][[weather][type-link][taf-predictions * taf-records]]][[weather][base-field][taf.header-text]]]
p1839
(dp1840
Vtype
p1841
Vstring
p1842
sg12
g13
sVid
p1843
g1839
sVname
p1844
VTakeoff Forecast at Dispatch: Header Text
p1845
ssV[-hub-][field][[[ems-core][entity-type][foqa-flights]][[[weather][type-link][flight-weather * alternate-prediction-at-landing]][[weather][type-link][taf-predictions * taf-records]]][[weather][base-field][taf.validity-stop]]]
p1846
(dp1847
Vtype
p1848
VdateTime
p1849
sg12
g13
sVid
p1850
g1846
sVname
p1851
VAlternate Forecast at Diversion: Valid Until
p1852
ssV[-hub-][field][[[ems-core][entity-type][foqa-flights]][[[nav][type-link][airport-takeoff * foqa-flights]]][[nav][base-field][nav-airport.longitude]]]
p1853
(dp1854
Vtype
p1855
Vnumber
p1856
sg12
g13
sVid
p1857
g1853
sVname
p1858
VTakeoff Airport Longitude
p1859
ssV[-hub-][field][[[ems-core][entity-type][foqa-flights]][[ems-core][base-field][flight.runway-confidence-landing]]]
p1860
(dp1861
Vtype
p1862
Vnumber
p1863
sg12
g13
sVid
p1864
g1860
sVname
p1865
VLanding Runway Confidence
p1866
ssV[-hub-][field][[[ems-core][entity-type][foqa-flights]][[[nav][type-link][runway-takeoff * foqa-flights]]][[nav][base-field][nav-runway.heading-true]]]
p1867
(dp1868
Vtype
p1869
Vnumber
p1870
sg12
g13
sVid
p1871
g1867
sVname
p1872
VTakeoff Runway True Heading (deg)
p1873
ssV[-hub-][field][[[ems-core][entity-type][foqa-flights]][[[weather][type-link][flight-weather * landing-prediction-at-dispatch]]][[weather][base-field][prediction.visibility]]]
p1874
(dp1875
Vtype
p1876
Vnumber
p1877
sg12
g13
sVid
p1878
g1874
sVname
p1879
VPlanned Landing Forecast at Dispatch: Visibility (sm)
p1880
ssV[-hub-][field][[[ems-core][entity-type][foqa-flights]][[esn-information][base-field][esn--right-inbd-]]]
p1881
(dp1882
Vtype
p1883
Vstring
p1884
sg12
g13
sVid
p1885
g1881
sVname
p1886
VESN (Right Inbd)
p1887
ssV[-hub-][field][[[ems-core][entity-type][foqa-flights]][[[nav][type-link][runway-landing * foqa-flights]]][[nav][base-field][nav-runway.elevation-end]]]
p1888
(dp1889
Vtype
p1890
Vnumber
p1891
sg12
g13
sVid
p1892
g1888
sVname
p1893
VLanding Runway Ending Elevation (ft)
p1894
ssV[-hub-][field][[[ems-core][entity-type][foqa-flights]][[[weather][type-link][flight-weather * alternate-prediction-at-landing]]][[weather][base-field][prediction.visibility]]]
p1895
(dp1896
Vtype
p1897
Vnumber
p1898
sg12
g13
sVid
p1899
g1895
sVname
p1900
VAlternate Forecast at Diversion: Visibility (sm)
p1901
ssV[-hub-][field][[[ems-core][entity-type][foqa-flights]][[[nav][type-link][airport-landing * foqa-flights]]][[nav][base-field][nav-airport.faa-code]]]
p1902
(dp1903
Vtype
p1904
Vstring
p1905
sg12
g13
sVid
p1906
g1902
sVname
p1907
VLanding Airport FAA / Regional Code
p1908
ssV[-hub-][field][[[ems-core][entity-type][foqa-flights]][[[nav][type-link][runway-landing * foqa-flights]]][[nav][base-field][nav-runway.parallel]]]
p1909
(dp1910
Vtype
p1911
Vboolean
p1912
sg12
g13
sVid
p1913
g1909
sVname
p1914
VLanding Is Parallel
p1915
ssV[-hub-][field][[[ems-core][entity-type][foqa-flights]][[[weather][type-link][flight-weather * landing-prediction-at-takeoff]]][[weather][base-field][prediction.start-time]]]
p1916
(dp1917
Vtype
p1918
VdateTime
p1919
sg12
g13
sVid
p1920
g1916
sVname
p1921
VPlanned Landing Forecast at Takeoff: Start Time
p1922
ssV[-hub-][field-group][[[ems-core][entity-type][foqa-flights]][[ems-core][internal-field-group][nav-info]]]
p1923
(dp1924
g12
g54
sVid
p1925
g1923
sVname
p1926
VNavigation Information
p1927
ssV[-hub-][field][[[ems-core][entity-type][foqa-flights]][[ems-core][base-field][flight.takeoff-runway-to-landing-runway]]]
p1928
(dp1929
Vtype
p1930
Vdiscrete
p1931
sg12
g13
sVid
p1932
g1928
sVname
p1933
VTakeoff Rwy -> Landing Rwy
p1934
ssV[-hub-][field][[[ems-core][entity-type][foqa-flights]][[airframe-engine-field-set][base-field][airframe]]]
p1935
(dp1936
Vtype
p1937
Vdiscrete
p1938
sg12
g13
sVid
p1939
g1935
sVname
p1940
VAirframe
p1941
ssV[-hub-][field][[[ems-core][entity-type][foqa-flights]][[ems-core][base-field][flight.weather-takeoff-exists]]]
p1942
(dp1943
Vtype
p1944
Vboolean
p1945
sg12
g13
sVid
p1946
g1942
sVname
p1947
VTakeoff Observation Present
p1948
ssV[-hub-][field][[[ems-core][entity-type][foqa-flights]][[airframe-engine-field-set][base-field][engine-manufacturer]]]
p1949
(dp1950
Vtype
p1951
Vdiscrete
p1952
sg12
g13
sVid
p1953
g1949
sVname
p1954
VEngine Manufacturer
p1955
ssV[-hub-][field][[[ems-core][entity-type][foqa-flights]][[[nav][type-link][airport-landing * foqa-flights]]][[nav][base-field][nav-airport.latitude]]]
p1956
(dp1957
Vtype
p1958
Vnumber
p1959
sg12
g13
sVid
p1960
g1956
sVname
p1961
VLanding Airport Latitude
p1962
ssV[-hub-][field][[[ems-core][entity-type][foqa-flights]][[duplicate-detection][base-field][automatic-detection]]]
p1963
(dp1964
Vtype
p1965
Vdiscrete
p1966
sg12
g13
sVid
p1967
g1963
sVname
p1968
VAutomatic Detection
p1969
ssV[-hub-][field][[[ems-core][entity-type][foqa-flights]][[crew-contact][base-field][recommendations]]]
p1970
(dp1971
Vtype
p1972
Vstring
p1973
sg12
g13
sVid
p1974
g1970
sVname
p1975
VRecommendations
p1976
ssV[-hub-][field][[[ems-core][entity-type][foqa-flights]][[[weather][type-link][flight-weather * landing-prediction-at-takeoff]]][[weather][base-field][prediction.raw-text]]]
p1977
(dp1978
Vtype
p1979
Vstring
p1980
sg12
g13
sVid
p1981
g1977
sVname
p1982
VPlanned Landing Forecast at Takeoff: Raw Text
p1983
ssV[-hub-][field][[[ems-core][entity-type][foqa-flights]][[crew-contact][base-field][why-did-the-event-occur-]]]
p1984
(dp1985
Vtype
p1986
Vstring
p1987
sg12
g13
sVid
p1988
g1984
sVname
p1989
VWhy Did the Event Occur?
p1990
ssV[-hub-][field][[[ems-core][entity-type][foqa-flights]][[[weather][type-link][foqa-flights * takeoff-weather]]][[weather][base-field][metar.dewpoint]]]
p1991
(dp1992
Vtype
p1993
Vnumber
p1994
sg12
g13
sVid
p1995
g1991
sVname
p1996
VTakeoff Dewpoint (deg C)
p1997
ssV[-hub-][field][[[ems-core][entity-type][foqa-flights]][[ems-core][base-field][flight.procedure-confidence-landing]]]
p1998
(dp1999
Vtype
p2000
Vnumber
p2001
sg12
g13
sVid
p2002
g1998
sVname
p2003
VArrival Confidence
p2004
ssV[-hub-][field][[[ems-core][entity-type][foqa-flights]][[[weather][type-link][flight-weather * alternate-prediction-at-dispatch]]][[weather][base-field][prediction.wind-speed]]]
p2005
(dp2006
Vtype
p2007
Vnumber
p2008
sg12
g13
sVid
p2009
g2005
sVname
p2010
VAlternate Forecast at Dispatch: Wind Speed (kts)
p2011
ssV[-hub-][field][[[ems-core][entity-type][foqa-flights]][[[weather][type-link][foqa-flights * takeoff-weather]]][[weather][base-field][metar.visibility]]]
p2012
(dp2013
Vtype
p2014
Vnumber
p2015
sg12
g13
sVid
p2016
g2012
sVname
p2017
VTakeoff Visibility (sm)
p2018
ssV[-hub-][field][[[ems-core][entity-type][foqa-flights]][[ems-core][base-field][flight.dafif-release]]]
p2019
(dp2020
Vtype
p2021
Vnumber
p2022
sg12
g13
sVid
p2023
g2019
sVname
p2024
VDafif Release ID
p2025
ssV[-hub-][field][[[ems-core][entity-type][foqa-flights]][[[nav][type-link][runway-landing * foqa-flights]]][[nav][base-field][nav-runway.latitude-end]]]
p2026
(dp2027
Vtype
p2028
Vnumber
p2029
sg12
g13
sVid
p2030
g2026
sVname
p2031
VLanding Runway Ending Latitude
p2032
ssV[-hub-][field][[[ems-core][entity-type][foqa-flights]][[data-quality][base-field][data-quality-comments]]]
p2033
(dp2034
Vtype
p2035
Vstring
p2036
sg12
g13
sVid
p2037
g2033
sVname
p2038
VData Quality Comments
p2039
ssV[-hub-][field][[[ems-core][entity-type][foqa-flights]][[ems-core][base-field][flight.uid]]]
p2040
(dp2041
Vtype
p2042
Vnumber
p2043
sg12
g13
sVid
p2044
g2040
sVname
p2045
VFlight Record
p2046
ssV[-hub-][field][[[ems-core][entity-type][foqa-flights]][[[nav][type-link][runway-landing * foqa-flights]]][[nav][base-field][nav-runway.mmark-longitude]]]
p2047
(dp2048
Vtype
p2049
Vnumber
p2050
sg12
g13
sVid
p2051
g2047
sVname
p2052
VLanding Middle Marker Longitude
p2053
ssV[-hub-][field][[[ems-core][entity-type][foqa-flights]][[[weather][type-link][flight-weather * takeoff-prediction-at-dispatch]]][[weather][base-field][prediction.visibility]]]
p2054
(dp2055
Vtype
p2056
Vnumber
p2057
sg12
g13
sVid
p2058
g2054
sVname
p2059
VTakeoff Forecast at Dispatch: Visibility (sm)
p2060
ssV[-hub-][field][[[ems-core][entity-type][foqa-flights]][[[weather][type-link][flight-weather * landing-prediction-at-dispatch]][[weather][type-link][taf-predictions * taf-records]]][[weather][base-field][taf.validity-start]]]
p2061
(dp2062
Vtype
p2063
VdateTime
p2064
sg12
g13
sVid
p2065
g2061
sVname
p2066
VPlanned Landing Forecast at Dispatch: Valid From
p2067
ssV[-hub-][field][[[ems-core][entity-type][foqa-flights]][[[weather][type-link][foqa-flights * takeoff-weather]]][[weather][base-field][metar.raw-text]]]
p2068
(dp2069
Vtype
p2070
Vstring
p2071
sg12
g13
sVid
p2072
g2068
sVname
p2073
VTakeoff Raw Text
p2074
ssV[-hub-][field][[[ems-core][entity-type][foqa-flights]][[ems-core][base-field][flight.airport-takeoff]]]
p2075
(dp2076
Vtype
p2077
Vdiscrete
p2078
sg12
g13
sVid
p2079
g2075
sVname
p2080
VTakeoff Airport Code
p2081
ssV[-hub-][field][[[ems-core][entity-type][foqa-flights]][[[weather][type-link][foqa-flights * landing-weather]]][[weather][base-field][metar.is-parsed]]]
p2082
(dp2083
Vtype
p2084
Vboolean
p2085
sg12
g13
sVid
p2086
g2082
sVname
p2087
VLanding Parsed OK
p2088
ssV[-hub-][field][[[ems-core][entity-type][foqa-flights]][[[nav][type-link][runway-takeoff * foqa-flights]]][[nav][base-field][nav-runway.takeoff-dist]]]
p2089
(dp2090
Vtype
p2091
Vnumber
p2092
sg12
g13
sVid
p2093
g2089
sVname
p2094
VTakeoff Runway Takeoff Distance (ft)
p2095
ssV[-hub-][field][[[ems-core][entity-type][foqa-flights]][[[nav][type-link][runway-landing * foqa-flights]]][[nav][base-field][nav-runway.threshold-latitude]]]
p2096
(dp2097
Vtype
p2098
Vnumber
p2099
sg12
g13
sVid
p2100
g2096
sVname
p2101
VLanding Threshold Latitude
p2102
ssV[-hub-][field][[[ems-core][entity-type][foqa-flights]][[ems-core][base-field][flight.aircraft]]]
p2103
(dp2104
Vtype
p2105
Vdiscrete
p2106
sg12
g13
sVid
p2107
g2103
sVname
p2108
VTail Number
p2109
ssV[-hub-][field][[[ems-core][entity-type][foqa-flights]][[[weather][type-link][flight-weather * landing-prediction-at-takeoff]][[weather][type-link][taf-predictions * taf-records]]][[weather][base-field][taf.issue-time]]]
p2110
(dp2111
Vtype
p2112
VdateTime
p2113
sg12
g13
sVid
p2114
g2110
sVname
p2115
VPlanned Landing Forecast at Takeoff: Issued At
p2116
ssV[-hub-][field][[[ems-core][entity-type][foqa-flights]][[[weather][type-link][foqa-flights * landing-weather]]][[weather][base-field][metar.pressure]]]
p2117
(dp2118
Vtype
p2119
Vnumber
p2120
sg12
g13
sVid
p2121
g2117
sVname
p2122
VLanding Altimeter (in Hg)
p2123
ssV[-hub-][field][[[ems-core][entity-type][foqa-flights]][[airframe-engine-field-set][base-field][fleet-group]]]
p2124
(dp2125
Vtype
p2126
Vdiscrete
p2127
sg12
g13
sVid
p2128
g2124
sVname
p2129
VAirframe Group
p2130
ssV[-hub-][field][[[ems-core][entity-type][foqa-flights]][[[nav][type-link][airport-takeoff * foqa-flights]]][[nav][base-field][nav-airport.name]]]
p2131
(dp2132
Vtype
p2133
Vstring
p2134
sg12
g13
sVid
p2135
g2131
sVname
p2136
VTakeoff Airport Name
p2137
ssV[-hub-][field][[[ems-core][entity-type][foqa-flights]][[[nav][type-link][runway-landing * foqa-flights]]][[nav][base-field][nav-runway.loc-frequency]]]
p2138
(dp2139
Vtype
p2140
Vnumber
p2141
sg12
g13
sVid
p2142
g2138
sVname
p2143
VLanding Localizer Frequency (MHz)
p2144
ssV[-hub-][field][[[ems-core][entity-type][foqa-flights]][[[nav][type-link][runway-landing * foqa-flights]]][[nav][base-field][nav-runway.heading-true]]]
p2145
(dp2146
Vtype
p2147
Vnumber
p2148
sg12
g13
sVid
p2149
g2145
sVname
p2150
VLanding Runway True Heading (deg)
p2151
ssV[-hub-][field-group][[[ems-core][entity-type][foqa-flights]][[block-cost-model][internal-field-group][block-cost-model]]]
p2152
(dp2153
g12
g54
sVid
p2154
g2152
sVname
p2155
VBlock Cost Model
p2156
ssV[-hub-][field][[[ems-core][entity-type][foqa-flights]][[ems-core][base-field][flight.runway-landing-fdw]]]
p2157
(dp2158
Vtype
p2159
Vnumber
p2160
sg12
g13
sVid
p2161
g2157
sVname
p2162
VLanding Runway FDW ID Number
p2163
ssV[-hub-][field-group][[[ems-core][entity-type][foqa-flights]][[ems-apm][flight-group][profile-container:folder-ffffffff000000000000000000000000]]]
p2164
(dp2165
g12
g54
sVid
p2166
g2164
sVname
p2167
VProfiles
p2168
ssV[-hub-][field][[[ems-core][entity-type][foqa-flights]][[[nav][type-link][runway-takeoff * foqa-flights]][[nav][type-link][flight-runway * dme]]][[nav][base-field][nav-navaid.elevation]]]
p2169
(dp2170
Vtype
p2171
Vnumber
p2172
sg12
g13
sVid
p2173
g2169
sVname
p2174
VTakeoff DME Elevation (ft)
p2175
ssV[-hub-][field][[[ems-core][entity-type][foqa-flights]][[data-fusion][base-field][oooi-data-available]]]
p2176
(dp2177
Vtype
p2178
Vdiscrete
p2179
sg12
g13
sVid
p2180
g2176
sVname
p2181
VOOOI Data Available
p2182
ssV[-hub-][field][[[ems-core][entity-type][foqa-flights]][[[weather][type-link][flight-weather * landing-prediction-at-dispatch]][[weather][type-link][taf-predictions * taf-records]]][[weather][base-field][taf.import-id]]]
p2183
(dp2184
Vtype
p2185
Vnumber
p2186
sg12
g13
sVid
p2187
g2183
sVname
p2188
VPlanned Landing Forecast at Dispatch: Import ID
p2189
ssV[-hub-][field][[[ems-core][entity-type][foqa-flights]][[ems-core][base-field][flight.exact-date]]]
p2190
(dp2191
Vtype
p2192
VdateTime
p2193
sg12
g13
sVid
p2194
g2190
sVname
p2195
VFlight Date (Exact)
p2196
ssV[-hub-][field][[[ems-core][entity-type][foqa-flights]][[[weather][type-link][flight-weather * alternate-prediction-at-takeoff]][[weather][type-link][taf-predictions * taf-records]]][[weather][base-field][taf.import-id]]]
p2197
(dp2198
Vtype
p2199
Vnumber
p2200
sg12
g13
sVid
p2201
g2197
sVname
p2202
VAlternate Forecast at Takeoff: Import ID
p2203
ssV[-hub-][field][[[ems-core][entity-type][foqa-flights]][[ems-core][base-field][city-pair.pair]]]
p2204
(dp2205
Vtype
p2206
Vdiscrete
p2207
sg12
g13
sVid
p2208
g2204
sVname
p2209
VCity Pair
p2210
ssV[-hub-][field][[[ems-core][entity-type][foqa-flights]][[block-cost-model][base-field][preferred-gw-source]]]
p2211
(dp2212
Vtype
p2213
Vdiscrete
p2214
sg12
g13
sVid
p2215
g2211
sVname
p2216
VPreferred GW Source
p2217
ssV[-hub-][field][[[ems-core][entity-type][foqa-flights]][[ems-core][base-field][flight.takeoff-runway-to-landing-airport]]]
p2218
(dp2219
Vtype
p2220
Vdiscrete
p2221
sg12
g13
sVid
p2222
g2218
sVname
p2223
VTakeoff Rwy -> Landing Arpt
p2224
ssV[-hub-][field-group][[[ems-core][entity-type][foqa-flights]][[ems-apm][flight-review-group][fields:folder-ffffffff000000000000000000000000]]]
p2225
(dp2226
g12
g54
sVid
p2227
g2225
sVname
p2228
VProfile Review
p2229
ssV[-hub-][field][[[ems-core][entity-type][foqa-flights]][[[nav][type-link][runway-landing * foqa-flights]]][[nav][base-field][nav-runway.mmark-latitude]]]
p2230
(dp2231
Vtype
p2232
Vnumber
p2233
sg12
g13
sVid
p2234
g2230
sVname
p2235
VLanding Middle Marker Latitude
p2236
ssV[-hub-][field][[[ems-core][entity-type][foqa-flights]][[[weather][type-link][flight-weather * takeoff-prediction-at-dispatch]]][[weather][base-field][prediction.ceiling]]]
p2237
(dp2238
Vtype
p2239
Vnumber
p2240
sg12
g13
sVid
p2241
g2237
sVname
p2242
VTakeoff Forecast at Dispatch: Ceiling (ft)
p2243
ssV[-hub-][field][[[ems-core][entity-type][foqa-flights]][[[weather][type-link][flight-weather * takeoff-prediction-at-dispatch]][[weather][type-link][taf-predictions * taf-records]]][[weather][base-field][taf.validity-stop]]]
p2244
(dp2245
Vtype
p2246
VdateTime
p2247
sg12
g13
sVid
p2248
g2244
sVname
p2249
VTakeoff Forecast at Dispatch: Valid Until
p2250
ssV[-hub-][field][[[ems-core][entity-type][foqa-flights]][[[weather][type-link][flight-weather * takeoff-prediction-at-dispatch]]][[weather][base-field][prediction.wind-speed]]]
p2251
(dp2252
Vtype
p2253
Vnumber
p2254
sg12
g13
sVid
p2255
g2251
sVname
p2256
VTakeoff Forecast at Dispatch: Wind Speed (kts)
p2257
ssV[-hub-][field][[[ems-core][entity-type][foqa-flights]][[ems-core][base-field][flight.exist-file]]]
p2258
(dp2259
Vtype
p2260
Vboolean
p2261
sg12
g13
sVid
p2262
g2258
sVname
p2263
VFlight Data Exists
p2264
ssV[-hub-][field][[[ems-core][entity-type][foqa-flights]][[ems-core][base-field][flight.percent-invalid]]]
p2265
(dp2266
Vtype
p2267
Vnumber
p2268
sg12
g13
sVid
p2269
g2265
sVname
p2270
VPercent Invalid
p2271
ssV[-hub-][field][[[ems-core][entity-type][foqa-flights]][[data-quality][base-field][data-quality-(master)]]]
p2272
(dp2273
Vtype
p2274
Vdiscrete
p2275
sg12
g13
sVid
p2276
g2272
sVname
p2277
VData Quality (master)
p2278
ssV[-hub-][field][[[ems-core][entity-type][foqa-flights]][[[weather][type-link][flight-weather * alternate-prediction-at-takeoff]][[weather][type-link][taf-predictions * taf-records]]][[weather][base-field][taf.header-text]]]
p2279
(dp2280
Vtype
p2281
Vstring
p2282
sg12
g13
sVid
p2283
g2279
sVname
p2284
VAlternate Forecast at Takeoff: Header Text
p2285
ssV[-hub-][field][[[ems-core][entity-type][foqa-flights]][[[weather][type-link][foqa-flights * takeoff-weather]]][[weather][base-field][metar.ceiling]]]
p2286
(dp2287
Vtype
p2288
Vnumber
p2289
sg12
g13
sVid
p2290
g2286
sVname
p2291
VTakeoff Ceiling (ft)
p2292
ssV[-hub-][field][[[ems-core][entity-type][foqa-flights]][[data-fusion][base-field][preferred-fuel-quantity-source]]]
p2293
(dp2294
Vtype
p2295
Vdiscrete
p2296
sg12
g13
sVid
p2297
g2293
sVname
p2298
VPreferred Fuel Quantity Source
p2299
ssV[-hub-][field][[[ems-core][entity-type][foqa-flights]][[[weather][type-link][flight-weather * alternate-prediction-at-dispatch]]][[weather][base-field][prediction.visibility]]]
p2300
(dp2301
Vtype
p2302
Vnumber
p2303
sg12
g13
sVid
p2304
g2300
sVname
p2305
VAlternate Forecast at Dispatch: Visibility (sm)
p2306
ssV[-hub-][field-group][[[ems-core][entity-type][foqa-flights]][[ems-core][internal-field-group][nav-info-takeoff-rwy]]]
p2307
(dp2308
g12
g54
sVid
p2309
g2307
sVname
p2310
VRunway
p2311
ssV[-hub-][field][[[ems-core][entity-type][foqa-flights]][[[weather][type-link][flight-weather * alternate-prediction-at-dispatch]][[weather][type-link][taf-predictions * taf-records]]][[weather][base-field][taf.validity-stop]]]
p2312
(dp2313
Vtype
p2314
VdateTime
p2315
sg12
g13
sVid
p2316
g2312
sVname
p2317
VAlternate Forecast at Dispatch: Valid Until
p2318
ssV[-hub-][field][[[ems-core][entity-type][foqa-flights]][[[weather][type-link][flight-weather * alternate-prediction-at-takeoff]][[weather][type-link][taf-predictions * taf-records]]][[weather][base-field][taf.validity-start]]]
p2319
(dp2320
Vtype
p2321
VdateTime
p2322
sg12
g13
sVid
p2323
g2319
sVname
p2324
VAlternate Forecast at Takeoff: Valid From
p2325
ssV[-hub-][field][[[ems-core][entity-type][foqa-flights]][[ems-core][base-field][flight.exact-nav-match]]]
p2326
(dp2327
Vtype
p2328
Vboolean
p2329
sg12
g13
sVid
p2330
g2326
sVname
p2331
VExact Nav Database Match
p2332
ssV[-hub-][field][[[ems-core][entity-type][foqa-flights]][[[nav][type-link][runway-landing * foqa-flights]]][[nav][base-field][nav-runway.width]]]
p2333
(dp2334
Vtype
p2335
Vnumber
p2336
sg12
g13
sVid
p2337
g2333
sVname
p2338
VLanding Runway Width (ft)
p2339
ssV[-hub-][field][[[ems-core][entity-type][foqa-flights]][[[nav][type-link][runway-takeoff * foqa-flights]]][[nav][base-field][nav-runway.latitude-end]]]
p2340
(dp2341
Vtype
p2342
Vnumber
p2343
sg12
g13
sVid
p2344
g2340
sVname
p2345
VTakeoff Runway Ending Latitude
p2346
ssV[-hub-][field][[[ems-core][entity-type][foqa-flights]][[[nav][type-link][airport-takeoff * foqa-flights]]][[nav][base-field][nav-airport.latitude]]]
p2347
(dp2348
Vtype
p2349
Vnumber
p2350
sg12
g13
sVid
p2351
g2347
sVname
p2352
VTakeoff Airport Latitude
p2353
ssV[-hub-][field][[[ems-core][entity-type][foqa-flights]][[[nav][type-link][runway-landing * foqa-flights]][[nav][type-link][flight-runway * dme]]][[nav][base-field][nav-navaid.elevation]]]
p2354
(dp2355
Vtype
p2356
Vnumber
p2357
sg12
g13
sVid
p2358
g2354
sVname
p2359
VLanding DME Elevation (ft)
p2360
ssV[-hub-][field][[[ems-core][entity-type][foqa-flights]][[block-cost-model][base-field][baselining-in-progress]]]
p2361
(dp2362
Vtype
p2363
Vboolean
p2364
sg12
g13
sVid
p2365
g2361
sVname
p2366
VBaselining in Progress
p2367
ssV[-hub-][field][[[ems-core][entity-type][foqa-flights]][[block-cost-model][base-field][odw-required-for-fuel-quantity]]]
p2368
(dp2369
Vtype
p2370
Vdiscrete
p2371
sg12
g13
sVid
p2372
g2368
sVname
p2373
VPreferred Fuel Quantity Source
p2374
ssV[-hub-][field][[[ems-core][entity-type][foqa-flights]][[ems-core][base-field][flight.runway-landing]]]
p2375
(dp2376
Vtype
p2377
Vdiscrete
p2378
sg12
g13
sVid
p2379
g2375
sVname
p2380
VLanding Runway ID
p2381
ssV[-hub-][field][[[ems-core][entity-type][foqa-flights]][[[nav][type-link][runway-landing * foqa-flights]]][[nav][base-field][nav-runway.ILSCategory]]]
p2382
(dp2383
Vtype
p2384
Vdiscrete
p2385
sg12
g13
sVid
p2386
g2382
sVname
p2387
VLanding ILS/MLS Category
p2388
ssV[-hub-][field][[[ems-core][entity-type][foqa-flights]][[[nav][type-link][runway-landing * foqa-flights]]][[nav][base-field][nav-runway.thresh-cross-height]]]
p2389
(dp2390
Vtype
p2391
Vnumber
p2392
sg12
g13
sVid
p2393
g2389
sVname
p2394
VLanding Threshold Crossing Height (ft)
p2395
sssS'node_dict_factory'
p2396
c__builtin__
dict
p2397
sS'edge_attr_dict_factory'
p2398
g2397
sS'succ'
p2399
(dp2400
g8
(dp2401
sg17
(dp2402
sg24
(dp2403
sg31
(dp2404
sg38
(dp2405
sg45
(dp2406
sg52
(dp2407
g1299
(dp2408
sg2061
(dp2409
sg1271
(dp2410
sg570
(dp2411
sg1093
(dp2412
sg2183
(dp2413
sg1874
(dp2414
sg1610
(dp2415
sg1358
(dp2416
sg1450
(dp2417
sg638
(dp2418
sg1149
(dp2419
sg257
(dp2420
ssg58
(dp2421
sg65
(dp2422
sg72
(dp2423
sg79
(dp2424
sg86
(dp2425
sg93
(dp2426
sg100
(dp2427
sg107
(dp2428
sg114
(dp2429
sg121
(dp2430
sg128
(dp2431
sg135
(dp2432
sg142
(dp2433
sg149
(dp2434
sg156
(dp2435
sg163
(dp2436
sg170
(dp2437
sg177
(dp2438
sg184
(dp2439
g2068
(dp2440
sg107
(dp2441
sg396
(dp2442
sg535
(dp2443
sg1991
(dp2444
sg1790
(dp2445
sg2286
(dp2446
sg1250
(dp2447
sg93
(dp2448
sg2012
(dp2449
ssg189
(dp2450
sg196
(dp2451
sg203
(dp2452
g1121
(dp2453
sg928
(dp2454
sg121
(dp2455
sg798
(dp2456
sg177
(dp2457
sg2279
(dp2458
sg1086
(dp2459
sg1652
(dp2460
sg2197
(dp2461
sg728
(dp2462
sg949
(dp2463
sg1285
(dp2464
sg2319
(dp2465
ssg208
(dp2466
sg215
(dp2467
sg222
(dp2468
sg229
(dp2469
sg236
(dp2470
sg243
(dp2471
sg250
(dp2472
sg257
(dp2473
sg264
(dp2474
g1196
(dp2475
sg1100
(dp2476
sg791
(dp2477
sg462
(dp2478
sg1970
(dp2479
sg490
(dp2480
sg1984
(dp2481
sg582
(dp2482
sg309
(dp2483
sg79
(dp2484
sg58
(dp2485
sg603
(dp2486
sg1278
(dp2487
ssg269
(dp2488
sg276
(dp2489
sg283
(dp2490
g1783
(dp2491
sg1339
(dp2492
sg1107
(dp2493
sg996
(dp2494
sg2169
(dp2495
sg1443
(dp2496
sg756
(dp2497
sg354
(dp2498
sg826
(dp2499
ssg288
(dp2500
sg295
(dp2501
sg302
(dp2502
sg309
(dp2503
sg316
(dp2504
sg323
(dp2505
g1415
(dp2506
sg1422
(dp2507
sg690
(dp2508
sg1034
(dp2509
sg977
(dp2510
sg2075
(dp2511
sg852
(dp2512
sg142
(dp2513
sg669
(dp2514
sg1236
(dp2515
sg1243
(dp2516
sg1853
(dp2517
sg2131
(dp2518
sg2347
(dp2519
ssg328
(dp2520
sg335
(dp2521
g2265
(dp2522
sg676
(dp2523
sg1942
(dp2524
sg1346
(dp2525
sg683
(dp2526
sg222
(dp2527
sg702
(dp2528
sg1493
(dp2529
sg1748
(dp2530
sg368
(dp2531
sg523
(dp2532
sg2258
(dp2533
ssg340
(dp2534
sg347
(dp2535
sg354
(dp2536
sg361
(dp2537
sg368
(dp2538
sg375
(dp2539
sg382
(dp2540
sg389
(dp2541
sg396
(dp2542
sg403
(dp2543
g735
(dp2544
sg408
(dp2545
sg1306
(dp2546
sg970
(dp2547
sg389
(dp2548
sg436
(dp2549
sg1429
(dp2550
sg1977
(dp2551
sg243
(dp2552
sg1521
(dp2553
sg86
(dp2554
sg2110
(dp2555
sg1916
(dp2556
ssg408
(dp2557
sg415
(dp2558
sg422
(dp2559
sg429
(dp2560
sg436
(dp2561
sg443
(dp2562
sg450
(dp2563
g840
(dp2564
sg1575
(dp2565
sg2293
(dp2566
sg469
(dp2567
sg1776
(dp2568
sg128
(dp2569
sg415
(dp2570
sg2176
(dp2571
sg422
(dp2572
sg1182
(dp2573
sg878
(dp2574
sg170
(dp2575
sg1589
(dp2576
ssg455
(dp2577
sg462
(dp2578
sg469
(dp2579
sg476
(dp2580
sg483
(dp2581
sg490
(dp2582
sg497
(dp2583
sg504
(dp2584
sg511
(dp2585
sg518
(dp2586
g697
(dp2587
sg1015
(dp2588
ssg523
(dp2589
sg530
(dp2590
g1963
(dp2591
sg295
(dp2592
sg1072
(dp2593
sg1401
(dp2594
sg1713
(dp2595
sg1811
(dp2596
sg1762
(dp2597
ssg535
(dp2598
sg542
(dp2599
sg549
(dp2600
sg556
(dp2601
sg563
(dp2602
sg570
(dp2603
sg577
(dp2604
sg582
(dp2605
sg589
(dp2606
sg596
(dp2607
sg603
(dp2608
sg610
(dp2609
sg617
(dp2610
sg624
(dp2611
sg631
(dp2612
sg638
(dp2613
sg645
(dp2614
g2307
(dp2615
sg885
(dp2616
sg323
(dp2617
ssg650
(dp2618
sg657
(dp2619
sg664
(dp2620
g2089
(dp2621
sg1114
(dp2622
sg45
(dp2623
sg1727
(dp2624
sg819
(dp2625
sg1867
(dp2626
sg1699
(dp2627
sg340
(dp2628
sg149
(dp2629
sg1210
(dp2630
sg196
(dp2631
sg2340
(dp2632
sg497
(dp2633
sg328
(dp2634
ssg669
(dp2635
sg676
(dp2636
sg683
(dp2637
sg690
(dp2638
sg697
(dp2639
g184
(dp2640
sg984
(dp2641
ssg702
(dp2642
sg709
(dp2643
sg716
(dp2644
g2157
(dp2645
sg1860
(dp2646
sg1909
(dp2647
sg2375
(dp2648
ssg721
(dp2649
sg728
(dp2650
sg735
(dp2651
sg742
(dp2652
sg749
(dp2653
sg756
(dp2654
sg763
(dp2655
sg770
(dp2656
sg777
(dp2657
sg784
(dp2658
sg791
(dp2659
sg798
(dp2660
sg805
(dp2661
sg812
(dp2662
sg819
(dp2663
sg826
(dp2664
sg833
(dp2665
sg840
(dp2666
sg847
(dp2667
sg852
(dp2668
sg859
(dp2669
g1998
(dp2670
sg1382
(dp2671
sg1053
(dp2672
ssg864
(dp2673
sg871
(dp2674
sg878
(dp2675
sg885
(dp2676
g650
(dp2677
sg1079
(dp2678
sg742
(dp2679
ssg890
(dp2680
g264
(dp2681
sg450
(dp2682
sg530
(dp2683
sg2225
(dp2684
sg2152
(dp2685
sg1462
(dp2686
ssg895
(dp2687
sg902
(dp2688
sg909
(dp2689
sg916
(dp2690
sg923
(dp2691
g784
(dp2692
sg429
(dp2693
sg1020
(dp2694
sg963
(dp2695
sg1467
(dp2696
sg8
(dp2697
sg17
(dp2698
sg1229
(dp2699
sg1135
(dp2700
sg1804
(dp2701
sg1846
(dp2702
sg1895
(dp2703
sg1818
(dp2704
ssg928
(dp2705
sg935
(dp2706
sg942
(dp2707
sg949
(dp2708
sg956
(dp2709
sg963
(dp2710
sg970
(dp2711
sg977
(dp2712
sg984
(dp2713
g347
(dp2714
sg163
(dp2715
sg38
(dp2716
sg1638
(dp2717
sg1692
(dp2718
sg1563
(dp2719
sg1514
(dp2720
sg1128
(dp2721
sg2082
(dp2722
sg2117
(dp2723
ssg989
(dp2724
sg996
(dp2725
sg1003
(dp2726
g1645
(dp2727
sg375
(dp2728
ssg1008
(dp2729
sg1015
(dp2730
g923
(dp2731
sg52
(dp2732
sg1542
(dp2733
sg403
(dp2734
sg1353
(dp2735
sg203
(dp2736
ssg1020
(dp2737
sg1027
(dp2738
sg1034
(dp2739
sg1041
(dp2740
sg1048
(dp2741
g1320
(dp2742
sg1500
(dp2743
sg871
(dp2744
sg935
(dp2745
sg2040
(dp2746
sg577
(dp2747
sg2190
(dp2748
sg1741
(dp2749
sg250
(dp2750
sg864
(dp2751
sg455
(dp2752
sg610
(dp2753
sg1332
(dp2754
ssg1053
(dp2755
sg1060
(dp2756
sg1067
(dp2757
g382
(dp2758
sg476
(dp2759
sg1027
(dp2760
sg1582
(dp2761
sg989
(dp2762
sg542
(dp2763
sg1881
(dp2764
sg709
(dp2765
sg1486
(dp2766
sg1408
(dp2767
ssg1072
(dp2768
sg1079
(dp2769
sg1086
(dp2770
sg1093
(dp2771
sg1100
(dp2772
sg1107
(dp2773
sg1114
(dp2774
sg1121
(dp2775
sg1128
(dp2776
sg1135
(dp2777
sg1142
(dp2778
sg1149
(dp2779
sg1156
(dp2780
sg1163
(dp2781
sg1168
(dp2782
sg1175
(dp2783
sg1182
(dp2784
sg1189
(dp2785
sg1196
(dp2786
sg1203
(dp2787
sg1210
(dp2788
sg1217
(dp2789
sg1224
(dp2790
g1060
(dp2791
sg2124
(dp2792
sg1067
(dp2793
sg1935
(dp2794
sg2103
(dp2795
sg902
(dp2796
sg777
(dp2797
sg631
(dp2798
sg812
(dp2799
sg1003
(dp2800
sg443
(dp2801
sg1264
(dp2802
sg1949
(dp2803
sg24
(dp2804
ssg1229
(dp2805
sg1236
(dp2806
sg1243
(dp2807
sg1250
(dp2808
sg1257
(dp2809
sg1264
(dp2810
sg1271
(dp2811
sg1278
(dp2812
sg1285
(dp2813
sg1292
(dp2814
sg1299
(dp2815
sg1306
(dp2816
sg1313
(dp2817
sg1320
(dp2818
sg1325
(dp2819
sg1332
(dp2820
sg1339
(dp2821
sg1346
(dp2822
sg1353
(dp2823
g1825
(dp2824
sg916
(dp2825
sg276
(dp2826
sg657
(dp2827
sg2300
(dp2828
sg1706
(dp2829
sg316
(dp2830
sg1203
(dp2831
sg65
(dp2832
sg2005
(dp2833
sg549
(dp2834
sg2312
(dp2835
sg1535
(dp2836
ssg1358
(dp2837
sg1365
(dp2838
g1956
(dp2839
sg511
(dp2840
sg229
(dp2841
sg236
(dp2842
sg302
(dp2843
sg1832
(dp2844
sg624
(dp2845
sg100
(dp2846
sg589
(dp2847
sg361
(dp2848
sg1528
(dp2849
sg1902
(dp2850
sg909
(dp2851
sg156
(dp2852
ssg1370
(dp2853
sg1377
(dp2854
g1570
(dp2855
sg716
(dp2856
sg1474
(dp2857
ssg1382
(dp2858
sg1389
(dp2859
g1377
(dp2860
sg1365
(dp2861
sg859
(dp2862
ssg1394
(dp2863
sg1401
(dp2864
sg1408
(dp2865
sg1415
(dp2866
sg1422
(dp2867
sg1429
(dp2868
sg1436
(dp2869
sg1443
(dp2870
sg1450
(dp2871
sg1457
(dp2872
sg1462
(dp2873
g2272
(dp2874
sg1631
(dp2875
sg189
(dp2876
sg1734
(dp2877
sg895
(dp2878
sg2033
(dp2879
ssg1467
(dp2880
sg1474
(dp2881
g556
(dp2882
sg563
(dp2883
sg1507
(dp2884
sg72
(dp2885
sg2333
(dp2886
sg749
(dp2887
sg2026
(dp2888
sg1888
(dp2889
sg2096
(dp2890
sg1436
(dp2891
sg956
(dp2892
sg2145
(dp2893
sg1603
(dp2894
sg1156
(dp2895
sg1325
(dp2896
sg114
(dp2897
sg763
(dp2898
sg2389
(dp2899
sg1755
(dp2900
sg1292
(dp2901
ssg1479
(dp2902
sg1486
(dp2903
sg1493
(dp2904
sg1500
(dp2905
sg1507
(dp2906
sg1514
(dp2907
sg1521
(dp2908
sg1528
(dp2909
sg1535
(dp2910
sg1542
(dp2911
g215
(dp2912
sg1769
(dp2913
sg1257
(dp2914
sg805
(dp2915
sg1313
(dp2916
sg1839
(dp2917
sg2237
(dp2918
sg2244
(dp2919
sg2251
(dp2920
sg770
(dp2921
sg721
(dp2922
sg2054
(dp2923
sg1189
(dp2924
ssg1547
(dp2925
sg1554
(dp2926
g1224
(dp2927
sg1048
(dp2928
sg518
(dp2929
sg1923
(dp2930
sg890
(dp2931
sg2164
(dp2932
sg335
(dp2933
sg847
(dp2934
sg1163
(dp2935
sg1457
(dp2936
ssg1563
(dp2937
sg1570
(dp2938
g1168
(dp2939
sg1041
(dp2940
sg1797
(dp2941
sg1617
(dp2942
sg269
(dp2943
sg288
(dp2944
sg135
(dp2945
sg1547
(dp2946
sg2138
(dp2947
sg1659
(dp2948
sg1666
(dp2949
sg1008
(dp2950
sg1685
(dp2951
sg2047
(dp2952
sg1394
(dp2953
sg2354
(dp2954
sg1720
(dp2955
sg1175
(dp2956
sg483
(dp2957
sg2382
(dp2958
sg2230
(dp2959
sg504
(dp2960
sg208
(dp2961
sg1596
(dp2962
sg833
(dp2963
ssg1575
(dp2964
sg1582
(dp2965
sg1589
(dp2966
sg1596
(dp2967
sg1603
(dp2968
sg1610
(dp2969
sg1617
(dp2970
sg1624
(dp2971
sg1631
(dp2972
sg1638
(dp2973
sg1645
(dp2974
sg1652
(dp2975
sg1659
(dp2976
sg1666
(dp2977
sg1673
(dp2978
sg1680
(dp2979
g1624
(dp2980
sg1142
(dp2981
sg617
(dp2982
sg942
(dp2983
ssg1685
(dp2984
sg1692
(dp2985
sg1699
(dp2986
sg1706
(dp2987
sg1713
(dp2988
sg1720
(dp2989
sg1727
(dp2990
sg1734
(dp2991
sg1741
(dp2992
sg1748
(dp2993
sg1755
(dp2994
sg1762
(dp2995
sg1769
(dp2996
sg1776
(dp2997
sg1783
(dp2998
sg1790
(dp2999
sg1797
(dp3000
sg1804
(dp3001
sg1811
(dp3002
sg1818
(dp3003
sg1825
(dp3004
sg1832
(dp3005
sg1839
(dp3006
sg1846
(dp3007
sg1853
(dp3008
sg1860
(dp3009
sg1867
(dp3010
sg1874
(dp3011
sg1881
(dp3012
sg1888
(dp3013
sg1895
(dp3014
sg1902
(dp3015
sg1909
(dp3016
sg1916
(dp3017
sg1923
(dp3018
g2326
(dp3019
sg2019
(dp3020
sg2218
(dp3021
sg645
(dp3022
sg1928
(dp3023
sg1389
(dp3024
sg596
(dp3025
sg1217
(dp3026
sg2204
(dp3027
ssg1928
(dp3028
sg1935
(dp3029
sg1942
(dp3030
sg1949
(dp3031
sg1956
(dp3032
sg1963
(dp3033
sg1970
(dp3034
sg1977
(dp3035
sg1984
(dp3036
sg1991
(dp3037
sg1998
(dp3038
sg2005
(dp3039
sg2012
(dp3040
sg2019
(dp3041
sg2026
(dp3042
sg2033
(dp3043
sg2040
(dp3044
sg2047
(dp3045
sg2054
(dp3046
sg2061
(dp3047
sg2068
(dp3048
sg2075
(dp3049
sg2082
(dp3050
sg2089
(dp3051
sg2096
(dp3052
sg2103
(dp3053
sg2110
(dp3054
sg2117
(dp3055
sg2124
(dp3056
sg2131
(dp3057
sg2138
(dp3058
sg2145
(dp3059
sg2152
(dp3060
g2211
(dp3061
sg2361
(dp3062
sg2368
(dp3063
sg1370
(dp3064
sg1479
(dp3065
sg1673
(dp3066
sg31
(dp3067
ssg2157
(dp3068
sg2164
(dp3069
sg2169
(dp3070
sg2176
(dp3071
sg2183
(dp3072
sg2190
(dp3073
sg2197
(dp3074
sg2204
(dp3075
sg2211
(dp3076
sg2218
(dp3077
sg2225
(dp3078
sg2230
(dp3079
sg2237
(dp3080
sg2244
(dp3081
sg2251
(dp3082
sg2258
(dp3083
sg2265
(dp3084
sg2272
(dp3085
sg2279
(dp3086
sg2286
(dp3087
sg2293
(dp3088
sg2300
(dp3089
sg2307
(dp3090
g283
(dp3091
sg1680
(dp3092
sg664
(dp3093
ssg2312
(dp3094
sg2319
(dp3095
sg2326
(dp3096
sg2333
(dp3097
sg2340
(dp3098
sg2347
(dp3099
sg2354
(dp3100
sg2361
(dp3101
sg2368
(dp3102
sg2375
(dp3103
sg2382
(dp3104
sg2389
(dp3105
ssS'edge'
p3106
g2400
sS'graph'
p3107
(dp3108
sS'adjlist_dict_factory'
p3109
g2397
sS'adj'
p3110
g2400
sS'pred'
p3111
(dp3112
g8
(dp3113
g923
g2697
ssg17
(dp3114
g923
g2698
ssg24
(dp3115
g1224
g2804
ssg31
(dp3116
g2152
g3067
ssg38
(dp3117
g984
g2716
ssg45
(dp3118
g664
g2623
ssg52
(dp3119
g1015
g2732
ssg58
(dp3120
g264
g2485
ssg65
(dp3121
g1353
g2832
ssg72
(dp3122
g1474
g2885
ssg79
(dp3123
g264
g2484
ssg86
(dp3124
g403
g2554
ssg93
(dp3125
g184
g2448
ssg100
(dp3126
g1365
g2846
ssg107
(dp3127
g184
g2441
ssg114
(dp3128
g1474
g2897
ssg121
(dp3129
g203
g2455
ssg128
(dp3130
g450
g2569
ssg135
(dp3131
g1570
g2945
ssg142
(dp3132
g323
g2513
ssg149
(dp3133
g664
g2629
ssg156
(dp3134
g1365
g2852
ssg163
(dp3135
g984
g2715
ssg170
(dp3136
g450
g2575
ssg177
(dp3137
g203
g2457
ssg184
(dp3138
g697
g2640
ssg189
(dp3139
g1462
g2876
ssg196
(dp3140
g664
g2631
ssg203
(dp3141
g1015
g2736
ssg208
(dp3142
g1570
g2961
ssg215
(dp3143
g1542
g2912
ssg222
(dp3144
g335
g2527
ssg229
(dp3145
g1365
g2841
ssg236
(dp3146
g1365
g2842
ssg243
(dp3147
g403
g2552
ssg250
(dp3148
g1048
g2750
ssg257
(dp3149
g52
g2420
ssg264
(dp3150
g890
g2681
ssg269
(dp3151
g1570
g2943
ssg276
(dp3152
g1353
g2826
ssg283
(dp3153
g2307
g3091
ssg288
(dp3154
g1570
g2944
ssg295
(dp3155
g530
g2592
ssg302
(dp3156
g1365
g2843
ssg309
(dp3157
g264
g2483
ssg316
(dp3158
g1353
g2830
ssg323
(dp3159
g645
g2617
ssg328
(dp3160
g664
g2634
ssg335
(dp3161
g1554
g2933
ssg340
(dp3162
g664
g2628
ssg347
(dp3163
g984
g2714
ssg354
(dp3164
g283
g2498
ssg361
(dp3165
g1365
g2848
ssg368
(dp3166
g335
g2531
ssg375
(dp3167
g1003
g2728
ssg382
(dp3168
g1067
g2758
ssg389
(dp3169
g403
g2548
ssg396
(dp3170
g184
g2442
ssg403
(dp3171
g1015
g2734
ssg408
(dp3172
g403
g2545
ssg415
(dp3173
g450
g2570
ssg422
(dp3174
g450
g2572
ssg429
(dp3175
g923
g2693
ssg436
(dp3176
g403
g2549
ssg443
(dp3177
g1224
g2801
ssg450
(dp3178
g890
g2682
ssg455
(dp3179
g1048
g2752
ssg462
(dp3180
g264
g2478
ssg469
(dp3181
g450
g2567
ssg476
(dp3182
g1067
g2759
ssg483
(dp3183
g1570
g2957
ssg490
(dp3184
g264
g2480
ssg497
(dp3185
g664
g2633
ssg504
(dp3186
g1570
g2960
ssg511
(dp3187
g1365
g2840
ssg518
(dp3188
g1554
g2929
ssg523
(dp3189
g335
g2532
ssg530
(dp3190
g890
g2683
ssg535
(dp3191
g184
g2443
ssg542
(dp3192
g1067
g2763
ssg549
(dp3193
g1353
g2834
ssg556
(dp3194
g1474
g2882
ssg563
(dp3195
g1474
g2883
ssg570
(dp3196
g52
g2411
ssg577
(dp3197
g1048
g2747
ssg582
(dp3198
g264
g2482
ssg589
(dp3199
g1365
g2847
ssg596
(dp3200
g1923
g3025
ssg603
(dp3201
g264
g2486
ssg610
(dp3202
g1048
g2753
ssg617
(dp3203
g1680
g2982
ssg624
(dp3204
g1365
g2845
ssg631
(dp3205
g1224
g2798
ssg638
(dp3206
g52
g2418
ssg645
(dp3207
g1923
g3022
ssg650
(dp3208
g885
g2677
ssg657
(dp3209
g1353
g2827
ssg664
(dp3210
g2307
g3093
ssg669
(dp3211
g323
g2514
ssg676
(dp3212
g335
g2523
ssg683
(dp3213
g335
g2526
ssg690
(dp3214
g323
g2508
ssg697
(dp3215
g518
g2587
ssg702
(dp3216
g335
g2528
ssg709
(dp3217
g1067
g2765
ssg716
(dp3218
g1377
g2856
ssg721
(dp3219
g1542
g2922
ssg728
(dp3220
g203
g2462
ssg735
(dp3221
g403
g2544
ssg742
(dp3222
g885
g2679
ssg749
(dp3223
g1474
g2887
ssg756
(dp3224
g283
g2497
ssg763
(dp3225
g1474
g2898
ssg770
(dp3226
g1542
g2921
ssg777
(dp3227
g1224
g2797
ssg784
(dp3228
g923
g2692
ssg791
(dp3229
g264
g2477
ssg798
(dp3230
g203
g2456
ssg805
(dp3231
g1542
g2915
ssg812
(dp3232
g1224
g2799
ssg819
(dp3233
g664
g2625
ssg826
(dp3234
g283
g2499
ssg833
(dp3235
g1570
g2963
ssg840
(dp3236
g450
g2564
ssg847
(dp3237
g1554
g2934
ssg852
(dp3238
g323
g2512
ssg859
(dp3239
g1389
g2862
ssg864
(dp3240
g1048
g2751
ssg871
(dp3241
g1048
g2744
ssg878
(dp3242
g450
g2574
ssg885
(dp3243
g645
g2616
ssg890
(dp3244
g1554
g2931
ssg895
(dp3245
g1462
g2878
ssg902
(dp3246
g1224
g2796
ssg909
(dp3247
g1365
g2851
ssg916
(dp3248
g1353
g2825
ssg923
(dp3249
g1015
g2731
ssg928
(dp3250
g203
g2454
ssg935
(dp3251
g1048
g2745
ssg942
(dp3252
g1680
g2983
ssg949
(dp3253
g203
g2463
ssg956
(dp3254
g1474
g2892
ssg963
(dp3255
g923
g2695
ssg970
(dp3256
g403
g2547
ssg977
(dp3257
g323
g2510
ssg984
(dp3258
g697
g2641
ssg989
(dp3259
g1067
g2762
ssg996
(dp3260
g283
g2494
ssg1003
(dp3261
g1224
g2800
ssg1008
(dp3262
g1570
g2950
ssg1015
(dp3263
g518
g2588
ssg1020
(dp3264
g923
g2694
ssg1027
(dp3265
g1067
g2760
ssg1034
(dp3266
g323
g2509
ssg1041
(dp3267
g1570
g2940
ssg1048
(dp3268
g1554
g2928
ssg1053
(dp3269
g859
g2672
ssg1060
(dp3270
g1224
g2791
ssg1067
(dp3271
g1224
g2793
ssg1072
(dp3272
g530
g2593
ssg1079
(dp3273
g885
g2678
ssg1086
(dp3274
g203
g2459
ssg1093
(dp3275
g52
g2412
ssg1100
(dp3276
g264
g2476
ssg1107
(dp3277
g283
g2493
ssg1114
(dp3278
g664
g2622
ssg1121
(dp3279
g203
g2453
ssg1128
(dp3280
g984
g2721
ssg1135
(dp3281
g923
g2700
ssg1142
(dp3282
g1680
g2981
ssg1149
(dp3283
g52
g2419
ssg1156
(dp3284
g1474
g2895
ssg1163
(dp3285
g1554
g2935
ssg1168
(dp3286
g1570
g2939
ssg1175
(dp3287
g1570
g2956
ssg1182
(dp3288
g450
g2573
ssg1189
(dp3289
g1542
g2924
ssg1196
(dp3290
g264
g2475
ssg1203
(dp3291
g1353
g2831
ssg1210
(dp3292
g664
g2630
ssg1217
(dp3293
g1923
g3026
ssg1224
(dp3294
g1554
g2927
ssg1229
(dp3295
g923
g2699
ssg1236
(dp3296
g323
g2515
ssg1243
(dp3297
g323
g2516
ssg1250
(dp3298
g184
g2447
ssg1257
(dp3299
g1542
g2914
ssg1264
(dp3300
g1224
g2802
ssg1271
(dp3301
g52
g2410
ssg1278
(dp3302
g264
g2487
ssg1285
(dp3303
g203
g2464
ssg1292
(dp3304
g1474
g2901
ssg1299
(dp3305
g52
g2408
ssg1306
(dp3306
g403
g2546
ssg1313
(dp3307
g1542
g2916
ssg1320
(dp3308
g1048
g2742
ssg1325
(dp3309
g1474
g2896
ssg1332
(dp3310
g1048
g2754
ssg1339
(dp3311
g283
g2492
ssg1346
(dp3312
g335
g2525
ssg1353
(dp3313
g1015
g2735
ssg1358
(dp3314
g52
g2416
ssg1365
(dp3315
g1389
g2861
ssg1370
(dp3316
g2152
g3064
ssg1377
(dp3317
g1389
g2860
ssg1382
(dp3318
g859
g2671
ssg1389
(dp3319
g1923
g3024
ssg1394
(dp3320
g1570
g2953
ssg1401
(dp3321
g530
g2594
ssg1408
(dp3322
g1067
g2767
ssg1415
(dp3323
g323
g2506
ssg1422
(dp3324
g323
g2507
ssg1429
(dp3325
g403
g2550
ssg1436
(dp3326
g1474
g2891
ssg1443
(dp3327
g283
g2496
ssg1450
(dp3328
g52
g2417
ssg1457
(dp3329
g1554
g2936
ssg1462
(dp3330
g890
g2686
ssg1467
(dp3331
g923
g2696
ssg1474
(dp3332
g1377
g2857
ssg1479
(dp3333
g2152
g3065
ssg1486
(dp3334
g1067
g2766
ssg1493
(dp3335
g335
g2529
ssg1500
(dp3336
g1048
g2743
ssg1507
(dp3337
g1474
g2884
ssg1514
(dp3338
g984
g2720
ssg1521
(dp3339
g403
g2553
ssg1528
(dp3340
g1365
g2849
ssg1535
(dp3341
g1353
g2836
ssg1542
(dp3342
g1015
g2733
ssg1547
(dp3343
g1570
g2946
ssg1554
(dp3344
sg1563
(dp3345
g984
g2719
ssg1570
(dp3346
g1377
g2855
ssg1575
(dp3347
g450
g2565
ssg1582
(dp3348
g1067
g2761
ssg1589
(dp3349
g450
g2576
ssg1596
(dp3350
g1570
g2962
ssg1603
(dp3351
g1474
g2894
ssg1610
(dp3352
g52
g2415
ssg1617
(dp3353
g1570
g2942
ssg1624
(dp3354
g1680
g2980
ssg1631
(dp3355
g1462
g2875
ssg1638
(dp3356
g984
g2717
ssg1645
(dp3357
g1003
g2727
ssg1652
(dp3358
g203
g2460
ssg1659
(dp3359
g1570
g2948
ssg1666
(dp3360
g1570
g2949
ssg1673
(dp3361
g2152
g3066
ssg1680
(dp3362
g2307
g3092
ssg1685
(dp3363
g1570
g2951
ssg1692
(dp3364
g984
g2718
ssg1699
(dp3365
g664
g2627
ssg1706
(dp3366
g1353
g2829
ssg1713
(dp3367
g530
g2595
ssg1720
(dp3368
g1570
g2955
ssg1727
(dp3369
g664
g2624
ssg1734
(dp3370
g1462
g2877
ssg1741
(dp3371
g1048
g2749
ssg1748
(dp3372
g335
g2530
ssg1755
(dp3373
g1474
g2900
ssg1762
(dp3374
g530
g2597
ssg1769
(dp3375
g1542
g2913
ssg1776
(dp3376
g450
g2568
ssg1783
(dp3377
g283
g2491
ssg1790
(dp3378
g184
g2445
ssg1797
(dp3379
g1570
g2941
ssg1804
(dp3380
g923
g2701
ssg1811
(dp3381
g530
g2596
ssg1818
(dp3382
g923
g2704
ssg1825
(dp3383
g1353
g2824
ssg1832
(dp3384
g1365
g2844
ssg1839
(dp3385
g1542
g2917
ssg1846
(dp3386
g923
g2702
ssg1853
(dp3387
g323
g2517
ssg1860
(dp3388
g716
g2646
ssg1867
(dp3389
g664
g2626
ssg1874
(dp3390
g52
g2414
ssg1881
(dp3391
g1067
g2764
ssg1888
(dp3392
g1474
g2889
ssg1895
(dp3393
g923
g2703
ssg1902
(dp3394
g1365
g2850
ssg1909
(dp3395
g716
g2647
ssg1916
(dp3396
g403
g2556
ssg1923
(dp3397
g1554
g2930
ssg1928
(dp3398
g1923
g3023
ssg1935
(dp3399
g1224
g2794
ssg1942
(dp3400
g335
g2524
ssg1949
(dp3401
g1224
g2803
ssg1956
(dp3402
g1365
g2839
ssg1963
(dp3403
g530
g2591
ssg1970
(dp3404
g264
g2479
ssg1977
(dp3405
g403
g2551
ssg1984
(dp3406
g264
g2481
ssg1991
(dp3407
g184
g2444
ssg1998
(dp3408
g859
g2670
ssg2005
(dp3409
g1353
g2833
ssg2012
(dp3410
g184
g2449
ssg2019
(dp3411
g1923
g3020
ssg2026
(dp3412
g1474
g2888
ssg2033
(dp3413
g1462
g2879
ssg2040
(dp3414
g1048
g2746
ssg2047
(dp3415
g1570
g2952
ssg2054
(dp3416
g1542
g2923
ssg2061
(dp3417
g52
g2409
ssg2068
(dp3418
g184
g2440
ssg2075
(dp3419
g323
g2511
ssg2082
(dp3420
g984
g2722
ssg2089
(dp3421
g664
g2621
ssg2096
(dp3422
g1474
g2890
ssg2103
(dp3423
g1224
g2795
ssg2110
(dp3424
g403
g2555
ssg2117
(dp3425
g984
g2723
ssg2124
(dp3426
g1224
g2792
ssg2131
(dp3427
g323
g2518
ssg2138
(dp3428
g1570
g2947
ssg2145
(dp3429
g1474
g2893
ssg2152
(dp3430
g890
g2685
ssg2157
(dp3431
g716
g2645
ssg2164
(dp3432
g1554
g2932
ssg2169
(dp3433
g283
g2495
ssg2176
(dp3434
g450
g2571
ssg2183
(dp3435
g52
g2413
ssg2190
(dp3436
g1048
g2748
ssg2197
(dp3437
g203
g2461
ssg2204
(dp3438
g1923
g3027
ssg2211
(dp3439
g2152
g3061
ssg2218
(dp3440
g1923
g3021
ssg2225
(dp3441
g890
g2684
ssg2230
(dp3442
g1570
g2959
ssg2237
(dp3443
g1542
g2918
ssg2244
(dp3444
g1542
g2919
ssg2251
(dp3445
g1542
g2920
ssg2258
(dp3446
g335
g2533
ssg2265
(dp3447
g335
g2522
ssg2272
(dp3448
g1462
g2874
ssg2279
(dp3449
g203
g2458
ssg2286
(dp3450
g184
g2446
ssg2293
(dp3451
g450
g2566
ssg2300
(dp3452
g1353
g2828
ssg2307
(dp3453
g645
g2615
ssg2312
(dp3454
g1353
g2835
ssg2319
(dp3455
g203
g2465
ssg2326
(dp3456
g1923
g3019
ssg2333
(dp3457
g1474
g2886
ssg2340
(dp3458
g664
g2632
ssg2347
(dp3459
g323
g2519
ssg2354
(dp3460
g1570
g2954
ssg2361
(dp3461
g2152
g3062
ssg2368
(dp3462
g2152
g3063
ssg2375
(dp3463
g716
g2648
ssg2382
(dp3464
g1570
g2958
ssg2389
(dp3465
g1474
g2899
sssb.