ccopy_reg
_reconstructor
p1
(cnetworkx.classes.digraph
DiGraph
p2
c__builtin__
object
p3
NtRp4
(dp5
S'node'
p6
(dp7
V[-hub-][field][[[ems-core][entity-type][foqa-flights]][[[weather][type-link][flight-weather * alternate-prediction-at-landing]]][[weather][base-field][prediction.ceiling]]]
p8
(dp9
Vtype
p10
Vnumber
p11
sS'nodetype'
p12
S'field'
p13
sVid
p14
g8
sVname
p15
VAlternate Forecast at Diversion: Ceiling (ft)
p16
ssV[-hub-][field][[[ems-core][entity-type][foqa-flights]][[[weather][type-link][flight-weather * alternate-prediction-at-landing]]][[weather][base-field][prediction.raw-text]]]
p17
(dp18
Vtype
p19
Vstring
p20
sg12
g13
sVid
p21
g17
sVname
p22
VAlternate Forecast at Diversion: Raw Text
p23
ssV[-hub-][field][[[ems-core][entity-type][foqa-flights]][[airframe-engine-field-set][base-field][airframe-manufacturer]]]
p24
(dp25
Vtype
p26
Vdiscrete
p27
sg12
g13
sVid
p28
g24
sVname
p29
VAirframe Manufacturer
p30
ssV[-hub-][field][[[ems-core][entity-type][foqa-flights]][[[weather][type-link][foqa-flights * landing-weather]]][[weather][base-field][metar.temperature]]]
p31
(dp32
Vtype
p33
Vnumber
p34
sg12
g13
sVid
p35
g31
sVname
p36
VLanding Temperature (deg C)
p37
ssV[-hub-][field][[[ems-core][entity-type][foqa-flights]][[[nav][type-link][runway-takeoff * foqa-flights]]][[nav][base-field][nav-runway.elevation-end]]]
p38
(dp39
Vtype
p40
Vnumber
p41
sg12
g13
sVid
p42
g38
sVname
p43
VTakeoff Runway Ending Elevation (ft)
p44
ssV[-hub-][field-group][[[ems-core][entity-type][foqa-flights]][[weather][internal-field-group][wx-landing-prediction-at-dispatch]]]
p45
(dp46
g12
S'field_group'
p47
sVid
p48
g45
sVname
p49
VPlanned Landing Forecast at Dispatch
p50
ssV[-hub-][field][[[ems-core][entity-type][foqa-flights]][[crew-contact][base-field][pnf---hours-total]]]
p51
(dp52
Vtype
p53
Vnumber
p54
sg12
g13
sVid
p55
g51
sVname
p56
VPNF - Hours Total
p57
ssV[-hub-][field][[[ems-core][entity-type][foqa-flights]][[[weather][type-link][flight-weather * alternate-prediction-at-dispatch]][[weather][type-link][taf-predictions * taf-records]]][[weather][base-field][taf.header-text]]]
p58
(dp59
Vtype
p60
Vstring
p61
sg12
g13
sVid
p62
g58
sVname
p63
VAlternate Forecast at Dispatch: Header Text
p64
ssV[-hub-][field][[[ems-core][entity-type][foqa-flights]][[[nav][type-link][runway-landing * foqa-flights]]][[nav][base-field][nav-runway.gs-angle]]]
p65
(dp66
Vtype
p67
Vnumber
p68
sg12
g13
sVid
p69
g65
sVname
p70
VLanding Glideslope Angle (deg)
p71
ssV[-hub-][field][[[ems-core][entity-type][foqa-flights]][[crew-contact][base-field][pilot-flying]]]
p72
(dp73
Vtype
p74
Vdiscrete
p75
sg12
g13
sVid
p76
g72
sVname
p77
VPilot Flying
p78
ssV[-hub-][field][[[ems-core][entity-type][foqa-flights]][[[weather][type-link][flight-weather * landing-prediction-at-takeoff]][[weather][type-link][taf-predictions * taf-records]]][[weather][base-field][taf.import-id]]]
p79
(dp80
Vtype
p81
Vnumber
p82
sg12
g13
sVid
p83
g79
sVname
p84
VPlanned Landing Forecast at Takeoff: Import ID
p85
ssV[-hub-][field][[[ems-core][entity-type][foqa-flights]][[[weather][type-link][foqa-flights * takeoff-weather]]][[weather][base-field][metar.wind-dir]]]
p86
(dp87
Vtype
p88
Vnumber
p89
sg12
g13
sVid
p90
g86
sVname
p91
VTakeoff Wind Direction (deg)
p92
ssV[-hub-][field][[[ems-core][entity-type][foqa-flights]][[[weather][type-link][foqa-flights * takeoff-weather]]][[weather][base-field][metar.pressure]]]
p93
(dp94
Vtype
p95
Vnumber
p96
sg12
g13
sVid
p97
g93
sVname
p98
VTakeoff Altimeter (in Hg)
p99
ssV[-hub-][field][[[ems-core][entity-type][foqa-flights]][[[nav][type-link][runway-landing * foqa-flights]]][[nav][base-field][nav-runway.length]]]
p100
(dp101
Vtype
p102
Vnumber
p103
sg12
g13
sVid
p104
g100
sVname
p105
VLanding Runway Length (ft)
p106
ssV[-hub-][field][[[ems-core][entity-type][foqa-flights]][[[weather][type-link][flight-weather * alternate-prediction-at-takeoff]]][[weather][base-field][prediction.visibility]]]
p107
(dp108
Vtype
p109
Vnumber
p110
sg12
g13
sVid
p111
g107
sVname
p112
VAlternate Forecast at Takeoff: Visibility (sm)
p113
ssV[-hub-][field][[[ems-core][entity-type][foqa-flights]][[data-fusion][base-field][metar-landing-data-validated]]]
p114
(dp115
Vtype
p116
Vdiscrete
p117
sg12
g13
sVid
p118
g114
sVname
p119
VMETAR Landing Data Validated
p120
ssV[-hub-][field][[[ems-core][entity-type][foqa-flights]][[[nav][type-link][runway-landing * foqa-flights]][[nav][type-link][flight-runway * dme]]][[nav][base-field][nav-navaid.latitude]]]
p121
(dp122
Vtype
p123
Vnumber
p124
sg12
g13
sVid
p125
g121
sVname
p126
VLanding DME Latitude
p127
ssV[-hub-][field][[[ems-core][entity-type][foqa-flights]][[ems-core][base-field][flight-nav.takeoff-mag-var]]]
p128
(dp129
Vtype
p130
Vnumber
p131
sg12
g13
sVid
p132
g128
sVname
p133
VTakeoff Airport Magnetic Variation (deg)
p134
ssV[-hub-][field][[[ems-core][entity-type][foqa-flights]][[[nav][type-link][runway-takeoff * foqa-flights]]][[nav][base-field][nav-runway.length]]]
p135
(dp136
Vtype
p137
Vnumber
p138
sg12
g13
sVid
p139
g135
sVname
p140
VTakeoff Runway Length (ft)
p141
ssV[-hub-][field][[[ems-core][entity-type][foqa-flights]][[[nav][type-link][airport-landing * foqa-flights]]][[nav][base-field][nav-airport.type]]]
p142
(dp143
Vtype
p144
Vstring
p145
sg12
g13
sVid
p146
g142
sVname
p147
VLanding Airport Type
p148
ssV[-hub-][field][[[ems-core][entity-type][foqa-flights]][[[weather][type-link][foqa-flights * landing-weather]]][[weather][base-field][metar.wind-speed]]]
p149
(dp150
Vtype
p151
Vnumber
p152
sg12
g13
sVid
p153
g149
sVname
p154
VLanding Wind Speed (kts)
p155
ssV[-hub-][field][[[ems-core][entity-type][foqa-flights]][[data-fusion][base-field][fuel-quantity-available]]]
p156
(dp157
Vtype
p158
Vdiscrete
p159
sg12
g13
sVid
p160
g156
sVname
p161
VFuel Quantity Available
p162
ssV[-hub-][field][[[ems-core][entity-type][foqa-flights]][[[weather][type-link][flight-weather * alternate-prediction-at-takeoff]]][[weather][base-field][prediction.ceiling]]]
p163
(dp164
Vtype
p165
Vnumber
p166
sg12
g13
sVid
p167
g163
sVname
p168
VAlternate Forecast at Takeoff: Ceiling (ft)
p169
ssV[-hub-][field-group][[[ems-core][entity-type][foqa-flights]][[weather][internal-field-group][wx-takeoff]]]
p170
(dp171
g12
g47
sVid
p172
g170
sVname
p173
VTakeoff Observation
p174
ssV[-hub-][field][[[ems-core][entity-type][foqa-flights]][[data-quality][base-field][corrected-position-tests]]]
p175
(dp176
Vtype
p177
Vdiscrete
p178
sg12
g13
sVid
p179
g175
sVname
p180
VCorrected Position Tests
p181
ssV[-hub-][field][[[ems-core][entity-type][foqa-flights]][[[nav][type-link][runway-takeoff * foqa-flights]]][[nav][base-field][nav-runway.elevation-start]]]
p182
(dp183
Vtype
p184
Vnumber
p185
sg12
g13
sVid
p186
g182
sVname
p187
VTakeoff Runway Starting Elevation (ft)
p188
ssV[-hub-][field-group][[[ems-core][entity-type][foqa-flights]][[weather][internal-field-group][wx-alternate-prediction-at-takeoff]]]
p189
(dp190
g12
g47
sVid
p191
g189
sVname
p192
VAlternate Forecast at Takeoff
p193
ssV[-hub-][field][[[ems-core][entity-type][foqa-flights]][[[nav][type-link][runway-landing * foqa-flights]]][[nav][base-field][nav-runway.imark-longitude]]]
p194
(dp195
Vtype
p196
Vnumber
p197
sg12
g13
sVid
p198
g194
sVname
p199
VLanding Inner Marker Longitude
p200
ssV[-hub-][field][[[ems-core][entity-type][foqa-flights]][[[weather][type-link][flight-weather * takeoff-prediction-at-dispatch]]][[weather][base-field][prediction.stop-time]]]
p201
(dp202
Vtype
p203
VdateTime
p204
sg12
g13
sVid
p205
g201
sVname
p206
VTakeoff Forecast at Dispatch: Stop Time
p207
ssV[-hub-][field][[[ems-core][entity-type][foqa-flights]][[ems-core][base-field][flight.exist-trajectory]]]
p208
(dp209
Vtype
p210
Vboolean
p211
sg12
g13
sVid
p212
g208
sVname
p213
VTrajectory Data Exists
p214
ssV[-hub-][field][[[ems-core][entity-type][foqa-flights]][[ems-core][base-field][flight-nav.landing-mag-var]]]
p215
(dp216
Vtype
p217
Vnumber
p218
sg12
g13
sVid
p219
g215
sVname
p220
VLanding Airport Magnetic Variation (deg)
p221
ssV[-hub-][field][[[ems-core][entity-type][foqa-flights]][[[nav][type-link][airport-landing * foqa-flights]]][[nav][base-field][nav-airport.country-string]]]
p222
(dp223
Vtype
p224
Vstring
p225
sg12
g13
sVid
p226
g222
sVname
p227
VLanding Airport Country
p228
ssV[-hub-][field][[[ems-core][entity-type][foqa-flights]][[[weather][type-link][flight-weather * landing-prediction-at-takeoff]][[weather][type-link][taf-predictions * taf-records]]][[weather][base-field][taf.header-text]]]
p229
(dp230
Vtype
p231
Vstring
p232
sg12
g13
sVid
p233
g229
sVname
p234
VPlanned Landing Forecast at Takeoff: Header Text
p235
ssV[-hub-][field][[[ems-core][entity-type][foqa-flights]][[[weather][type-link][flight-weather * landing-prediction-at-dispatch]]][[weather][base-field][prediction.wind-speed]]]
p236
(dp237
Vtype
p238
Vnumber
p239
sg12
g13
sVid
p240
g236
sVname
p241
VPlanned Landing Forecast at Dispatch: Wind Speed (kts)
p242
ssV[-hub-][field-group][[[ems-core][entity-type][foqa-flights]][[crew-contact][internal-field-group][crew-contact]]]
p243
(dp244
g12
g47
sVid
p245
g243
sVname
p246
VCrew Contact
p247
ssV[-hub-][field][[[ems-core][entity-type][foqa-flights]][[[nav][type-link][runway-landing * foqa-flights]]][[nav][base-field][nav-runway.imark-elevation]]]
p248
(dp249
Vtype
p250
Vnumber
p251
sg12
g13
sVid
p252
g248
sVname
p253
VLanding Inner Marker Elevation (ft)
p254
ssV[-hub-][field][[[ems-core][entity-type][foqa-flights]][[[weather][type-link][flight-weather * alternate-prediction-at-dispatch]][[weather][type-link][taf-predictions * taf-records]]][[weather][base-field][taf.issue-time]]]
p255
(dp256
Vtype
p257
VdateTime
p258
sg12
g13
sVid
p259
g255
sVname
p260
VAlternate Forecast at Dispatch: Issued At
p261
ssV[-hub-][field-group][[[ems-core][entity-type][foqa-flights]][[[nav][type-link][runway-takeoff * foqa-flights]]][[nav][internal-field-group][takeoff-rwy-ils-info]]]
p262
(dp263
g12
g47
sVid
p264
g262
sVname
p265
VILS
p266
ssV[-hub-][field][[[ems-core][entity-type][foqa-flights]][[[nav][type-link][runway-landing * foqa-flights]]][[nav][base-field][nav-runway.dme-bias]]]
p267
(dp268
Vtype
p269
Vnumber
p270
sg12
g13
sVid
p271
g267
sVname
p272
VLanding DME Bias (nm)
p273
ssV[-hub-][field][[[ems-core][entity-type][foqa-flights]][[duplicate-detection][base-field][first-duplicate-partner]]]
p274
(dp275
Vtype
p276
Vnumber
p277
sg12
g13
sVid
p278
g274
sVname
p279
VFirst Duplicate Partner
p280
ssV[-hub-][field][[[ems-core][entity-type][foqa-flights]][[[nav][type-link][airport-landing * foqa-flights]]][[nav][base-field][nav-airport.city]]]
p281
(dp282
Vtype
p283
Vstring
p284
sg12
g13
sVid
p285
g281
sVname
p286
VLanding Airport City
p287
ssV[-hub-][field][[[ems-core][entity-type][foqa-flights]][[crew-contact][base-field][description-of-event]]]
p288
(dp289
Vtype
p290
Vstring
p291
sg12
g13
sVid
p292
g288
sVname
p293
VDescription of Event
p294
ssV[-hub-][field][[[ems-core][entity-type][foqa-flights]][[[weather][type-link][flight-weather * alternate-prediction-at-dispatch]]][[weather][base-field][prediction.stop-time]]]
p295
(dp296
Vtype
p297
VdateTime
p298
sg12
g13
sVid
p299
g295
sVname
p300
VAlternate Forecast at Dispatch: Stop Time
p301
ssV[-hub-][field-group][[[ems-core][entity-type][foqa-flights]][[ems-core][internal-field-group][nav-info-takeoff-airport]]]
p302
(dp303
g12
g47
sVid
p304
g302
sVname
p305
VAirport
p306
ssV[-hub-][field][[[ems-core][entity-type][foqa-flights]][[[nav][type-link][runway-takeoff * foqa-flights]]][[nav][base-field][nav-runway.stopway]]]
p307
(dp308
Vtype
p309
Vnumber
p310
sg12
g13
sVid
p311
g307
sVname
p312
VTakeoff Stopway Length (ft)
p313
ssV[-hub-][field-group][[[ems-core][entity-type][foqa-flights]][[ems-core][internal-field-group][data-info]]]
p314
(dp315
g12
g47
sVid
p316
g314
sVname
p317
VData Information
p318
ssV[-hub-][field][[[ems-core][entity-type][foqa-flights]][[[nav][type-link][runway-takeoff * foqa-flights]]][[nav][base-field][nav-runway.longitude-start]]]
p319
(dp320
Vtype
p321
Vnumber
p322
sg12
g13
sVid
p323
g319
sVname
p324
VTakeoff Runway Starting Longitude
p325
ssV[-hub-][field][[[ems-core][entity-type][foqa-flights]][[[weather][type-link][foqa-flights * landing-weather]]][[weather][base-field][metar.raw-text]]]
p326
(dp327
Vtype
p328
Vstring
p329
sg12
g13
sVid
p330
g326
sVname
p331
VLanding Raw Text
p332
ssV[-hub-][field][[[ems-core][entity-type][foqa-flights]][[[nav][type-link][runway-takeoff * foqa-flights]][[nav][type-link][flight-runway * dme]]][[nav][base-field][nav-navaid.longitude]]]
p333
(dp334
Vtype
p335
Vnumber
p336
sg12
g13
sVid
p337
g333
sVname
p338
VTakeoff DME Longitude
p339
ssV[-hub-][field][[[ems-core][entity-type][foqa-flights]][[ems-core][base-field][flight.airport-landing-fdw]]]
p340
(dp341
Vtype
p342
Vnumber
p343
sg12
g13
sVid
p344
g340
sVname
p345
VLanding Airport FDW ID Number
p346
ssV[-hub-][field][[[ems-core][entity-type][foqa-flights]][[ems-core][base-field][flight.weather-landing-exists]]]
p347
(dp348
Vtype
p349
Vboolean
p350
sg12
g13
sVid
p351
g347
sVname
p352
VLanding Observation Present
p353
ssV[-hub-][field][[[ems-core][entity-type][foqa-flights]][[[ems-aux][type-link][flights * fleets]]][[ems-aux][base-field][fleet.data-type]]]
p354
(dp355
Vtype
p356
Vdiscrete
p357
sg12
g13
sVid
p358
g354
sVname
p359
VFlight Data Type
p360
ssV[-hub-][field][[[ems-core][entity-type][foqa-flights]][[[weather][type-link][flight-weather * landing-prediction-at-takeoff]]][[weather][base-field][prediction.visibility]]]
p361
(dp362
Vtype
p363
Vnumber
p364
sg12
g13
sVid
p365
g361
sVname
p366
VPlanned Landing Forecast at Takeoff: Visibility (sm)
p367
ssV[-hub-][field][[[ems-core][entity-type][foqa-flights]][[[weather][type-link][foqa-flights * takeoff-weather]]][[weather][base-field][metar.is-parsed]]]
p368
(dp369
Vtype
p370
Vboolean
p371
sg12
g13
sVid
p372
g368
sVname
p373
VTakeoff Parsed OK
p374
ssV[-hub-][field-group][[[ems-core][entity-type][foqa-flights]][[weather][internal-field-group][wx-landing-prediction-at-takeoff]]]
p375
(dp376
g12
g47
sVid
p377
g375
sVname
p378
VPlanned Landing Forecast at Takeoff
p379
ssV[-hub-][field][[[ems-core][entity-type][foqa-flights]][[[weather][type-link][flight-weather * landing-prediction-at-takeoff]]][[weather][base-field][prediction.stop-time]]]
p380
(dp381
Vtype
p382
VdateTime
p383
sg12
g13
sVid
p384
g380
sVname
p385
VPlanned Landing Forecast at Takeoff: Stop Time
p386
ssV[-hub-][field][[[ems-core][entity-type][foqa-flights]][[data-fusion][base-field][wb-load-sheet-available]]]
p387
(dp388
Vtype
p389
Vdiscrete
p390
sg12
g13
sVid
p391
g387
sVname
p392
VWB Load Sheet Available
p393
ssV[-hub-][field][[[ems-core][entity-type][foqa-flights]][[data-fusion][base-field][gross-weight-available]]]
p394
(dp395
Vtype
p396
Vdiscrete
p397
sg12
g13
sVid
p398
g394
sVname
p399
VGross Weight Available
p400
ssV[-hub-][field][[[ems-core][entity-type][foqa-flights]][[[weather][type-link][flight-weather * alternate-prediction-at-landing]][[weather][type-link][taf-predictions * taf-records]]][[weather][base-field][taf.issue-time]]]
p401
(dp402
Vtype
p403
VdateTime
p404
sg12
g13
sVid
p405
g401
sVname
p406
VAlternate Forecast at Diversion: Issued At
p407
ssV[-hub-][field][[[ems-core][entity-type][foqa-flights]][[[weather][type-link][flight-weather * landing-prediction-at-takeoff]]][[weather][base-field][prediction.uid]]]
p408
(dp409
Vtype
p410
Vnumber
p411
sg12
g13
sVid
p412
g408
sVname
p413
VPlanned Landing Forecast at Takeoff: Prediction Record
p414
ssV[-hub-][field][[[ems-core][entity-type][foqa-flights]][[airframe-engine-field-set][base-field][engine-series]]]
p415
(dp416
Vtype
p417
Vdiscrete
p418
sg12
g13
sVid
p419
g415
sVname
p420
VEngine Type
p421
ssV[-hub-][field-group][[[ems-core][entity-type][foqa-flights]][[data-fusion][internal-field-group][data-fusion]]]
p422
(dp423
g12
g47
sVid
p424
g422
sVname
p425
VData Fusion
p426
ssV[-hub-][field][[[ems-core][entity-type][foqa-flights]][[ems-core][base-field][flight.exist-takeoff]]]
p427
(dp428
Vtype
p429
Vboolean
p430
sg12
g13
sVid
p431
g427
sVname
p432
VTakeoff Valid
p433
ssV[-hub-][field][[[ems-core][entity-type][foqa-flights]][[redaction-information][base-field][flight-number-redacted]]]
p434
(dp435
Vtype
p436
Vdiscrete
p437
sg12
g13
sVid
p438
g434
sVname
p439
VFlight Number Redaction Info
p440
ssV[-hub-][field][[[ems-core][entity-type][foqa-flights]][[crew-contact][base-field][crew-complement]]]
p441
(dp442
Vtype
p443
Vdiscrete
p444
sg12
g13
sVid
p445
g441
sVname
p446
VCrew Composition
p447
ssV[-hub-][field][[[ems-core][entity-type][foqa-flights]][[[weather][type-link][flight-weather * alternate-prediction-at-landing]]][[weather][base-field][prediction.wind-speed]]]
p448
(dp449
Vtype
p450
Vnumber
p451
sg12
g13
sVid
p452
g448
sVname
p453
VAlternate Forecast at Diversion: Wind Speed (kts)
p454
ssV[-hub-][field][[[ems-core][entity-type][foqa-flights]][[[nav][type-link][runway-landing * foqa-flights]][[nav][type-link][flight-runway * dme]]][[nav][base-field][nav-navaid.longitude]]]
p455
(dp456
Vtype
p457
Vnumber
p458
sg12
g13
sVid
p459
g455
sVname
p460
VLanding DME Longitude
p461
ssV[-hub-][field][[[ems-core][entity-type][foqa-flights]][[source-flight-info][base-field][source-download-record-creation-date]]]
p462
(dp463
Vtype
p464
VdateTime
p465
sg12
g13
sVid
p466
g462
sVname
p467
VSource Download Record Creation Date
p468
ssV[-hub-][field][[[ems-core][entity-type][foqa-flights]][[[nav][type-link][runway-takeoff * foqa-flights]]][[nav][base-field][nav-runway.short-runway]]]
p469
(dp470
Vtype
p471
Vboolean
p472
sg12
g13
sVid
p473
g469
sVname
p474
VTakeoff Short Runway
p475
ssV[-hub-][field][[[ems-core][entity-type][foqa-flights]][[[nav][type-link][runway-landing * foqa-flights]]][[nav][base-field][nav-runway.imark-latitude]]]
p476
(dp477
Vtype
p478
Vnumber
p479
sg12
g13
sVid
p480
g476
sVname
p481
VLanding Inner Marker Latitude
p482
ssV[-hub-][field][[[ems-core][entity-type][foqa-flights]][[ems-core][base-field][flight.airport-landing]]]
p483
(dp484
Vtype
p485
Vdiscrete
p486
sg12
g13
sVid
p487
g483
sVname
p488
VLanding Airport Code
p489
ssV[-hub-][field-group][[[ems-core][entity-type][foqa-flights]][[weather][internal-field-group][wx-info]]]
p490
(dp491
g12
g47
sVid
p492
g490
sVname
p493
VWeather Information
p494
ssV[-hub-][field][[[ems-core][entity-type][foqa-flights]][[odw-logical][base-field][fdw-flight-odw-link.has-odw-match]]]
p495
(dp496
Vtype
p497
Vboolean
p498
sg12
g13
sVid
p499
g495
sVname
p500
VHas ODW Match
p501
ssV[-hub-][field-group][[[ems-core][entity-type][foqa-flights]][[duplicate-detection][internal-field-group][duplicate-detection]]]
p502
(dp503
g12
g47
sVid
p504
g502
sVname
p505
VDuplicate Detection
p506
ssV[-hub-][field][[[ems-core][entity-type][foqa-flights]][[ems-core][base-field][flight.weather-takeoff-delta]]]
p507
(dp508
Vtype
p509
Vnumber
p510
sg12
g13
sVid
p511
g507
sVname
p512
VTakeoff Observation Time Delta (minutes before liftoff)
p513
ssV[-hub-][field][[[ems-core][entity-type][foqa-flights]][[[weather][type-link][flight-weather * alternate-prediction-at-dispatch]]][[weather][base-field][prediction.wind-dir]]]
p514
(dp515
Vtype
p516
Vnumber
p517
sg12
g13
sVid
p518
g514
sVname
p519
VAlternate Forecast at Dispatch: Wind Direction (deg)
p520
ssV[-hub-][field][[[ems-core][entity-type][foqa-flights]][[[nav][type-link][runway-landing * foqa-flights]]][[nav][base-field][nav-runway.latitude-start]]]
p521
(dp522
Vtype
p523
Vnumber
p524
sg12
g13
sVid
p525
g521
sVname
p526
VLanding Runway Starting Latitude
p527
ssV[-hub-][field][[[ems-core][entity-type][foqa-flights]][[ems-core][base-field][flight.client-data-3]]]
p528
(dp529
Vtype
p530
Vdiscrete
p531
sg12
g13
sVid
p532
g528
sVname
p533
VFile Type
p534
ssV[-hub-][field][[[ems-core][entity-type][foqa-flights]][[[weather][type-link][flight-weather * landing-prediction-at-dispatch]]][[weather][base-field][prediction.wind-dir]]]
p535
(dp536
Vtype
p537
Vnumber
p538
sg12
g13
sVid
p539
g535
sVname
p540
VPlanned Landing Forecast at Dispatch: Wind Direction (deg)
p541
ssV[-hub-][field-group][[[ems-core][entity-type][foqa-flights]][[ems-core][internal-field-group][foqa-flights-processing]]]
p542
(dp543
g12
g47
sVid
p544
g542
sVname
p545
VProcessing
p546
ssV[-hub-][field][[[ems-core][entity-type][foqa-flights]][[crew-contact][base-field][crew-contact-status]]]
p547
(dp548
Vtype
p549
Vdiscrete
p550
sg12
g13
sVid
p551
g547
sVname
p552
VCrew Contact Status
p553
ssV[-hub-][field][[[ems-core][entity-type][foqa-flights]][[[nav][type-link][airport-landing * foqa-flights]]][[nav][base-field][nav-airport.name]]]
p554
(dp555
Vtype
p556
Vstring
p557
sg12
g13
sVid
p558
g554
sVname
p559
VLanding Airport Name
p560
ssV[-hub-][field][[[ems-core][entity-type][foqa-flights]][[ems-core][base-field][flight.takeoff-airport-to-landing-runway]]]
p561
(dp562
Vtype
p563
Vdiscrete
p564
sg12
g13
sVid
p565
g561
sVname
p566
VTakeoff Arpt -> Landing Rwy
p567
ssV[-hub-][field][[[ems-core][entity-type][foqa-flights]][[crew-contact][base-field][pf---hours-total]]]
p568
(dp569
Vtype
p570
Vnumber
p571
sg12
g13
sVid
p572
g568
sVname
p573
VPF - Hours Total
p574
ssV[-hub-][field][[[ems-core][entity-type][foqa-flights]][[ems-core][base-field][flight.date-confidence]]]
p575
(dp576
Vtype
p577
Vdiscrete
p578
sg12
g13
sVid
p579
g575
sVname
p580
VFlight Date Confidence
p581
ssV[-hub-][field][[[ems-core][entity-type][foqa-flights]][[duplicate-detection][base-field][duplicate-comments]]]
p582
(dp583
Vtype
p584
Vstring
p585
sg12
g13
sVid
p586
g582
sVname
p587
VDuplicate Comments
p588
ssV[-hub-][field][[[ems-core][entity-type][foqa-flights]][[ems-core][base-field][flight.runway-takeoff]]]
p589
(dp590
Vtype
p591
Vdiscrete
p592
sg12
g13
sVid
p593
g589
sVname
p594
VTakeoff Runway ID
p595
ssV[-hub-][field][[[ems-core][entity-type][foqa-flights]][[[nav][type-link][airport-landing * foqa-flights]]][[nav][base-field][nav-airport.icao-code]]]
p596
(dp597
Vtype
p598
Vstring
p599
sg12
g13
sVid
p600
g596
sVname
p601
VLanding Airport ICAO Code
p602
ssV[-hub-][field][[[ems-core][entity-type][foqa-flights]][[[ems-aux][type-link][fdw-flights * aircraft]]][[ems-aux][base-field][fdw-aircraft.active-state]]]
p603
(dp604
Vtype
p605
Vdiscrete
p606
sg12
g13
sVid
p607
g603
sVname
p608
VAircraft Active State
p609
ssV[-hub-][field][[[ems-core][entity-type][foqa-flights]][[[weather][type-link][flight-weather * landing-prediction-at-dispatch]]][[weather][base-field][prediction.ceiling]]]
p610
(dp611
Vtype
p612
Vnumber
p613
sg12
g13
sVid
p614
g610
sVname
p615
VPlanned Landing Forecast at Dispatch: Ceiling (ft)
p616
ssV[-hub-][field-group][[[ems-core][entity-type][foqa-flights]][[ems-core][internal-field-group][nav-info-takeoff]]]
p617
(dp618
g12
g47
sVid
p619
g617
sVname
p620
VTakeoff
p621
ssV[-hub-][field][[[ems-core][entity-type][foqa-flights]][[ems-core][base-field][flight.procedure-takeoff]]]
p622
(dp623
Vtype
p624
Vdiscrete
p625
sg12
g13
sVid
p626
g622
sVname
p627
VDeparture
p628
ssV[-hub-][field][[[ems-core][entity-type][foqa-flights]][[[weather][type-link][flight-weather * alternate-prediction-at-dispatch]]][[weather][base-field][prediction.uid]]]
p629
(dp630
Vtype
p631
Vnumber
p632
sg12
g13
sVid
p633
g629
sVname
p634
VAlternate Forecast at Dispatch: Prediction Record
p635
ssV[-hub-][field-group][[[ems-core][entity-type][foqa-flights]][[[nav][type-link][runway-takeoff * foqa-flights]]][[nav][internal-field-group][takeoff-rwy-geometry-info]]]
p636
(dp637
g12
g47
sVid
p638
g636
sVname
p639
VGeometry
p640
ssV[-hub-][field][[[ems-core][entity-type][foqa-flights]][[[nav][type-link][airport-takeoff * foqa-flights]]][[nav][base-field][nav-airport.faa-code]]]
p641
(dp642
Vtype
p643
Vstring
p644
sg12
g13
sVid
p645
g641
sVname
p646
VTakeoff Airport FAA / Regional Code
p647
ssV[-hub-][field][[[ems-core][entity-type][foqa-flights]][[ems-core][base-field][flight.no-discard]]]
p648
(dp649
Vtype
p650
Vboolean
p651
sg12
g13
sVid
p652
g648
sVname
p653
VFlight Data Protected
p654
ssV[-hub-][field][[[ems-core][entity-type][foqa-flights]][[ems-core][base-field][flight.client-data-2]]]
p655
(dp656
Vtype
p657
Vdiscrete
p658
sg12
g13
sVid
p659
g655
sVname
p660
VCustomer
p661
ssV[-hub-][field][[[ems-core][entity-type][foqa-flights]][[ems-core][base-field][flight.exist-terrain]]]
p662
(dp663
Vtype
p664
Vboolean
p665
sg12
g13
sVid
p666
g662
sVname
p667
VTerrain Data Exists
p668
ssV[-hub-][field][[[ems-core][entity-type][foqa-flights]][[[nav][type-link][airport-takeoff * foqa-flights]]][[nav][base-field][nav-airport.city]]]
p669
(dp670
Vtype
p671
Vstring
p672
sg12
g13
sVid
p673
g669
sVname
p674
VTakeoff Airport City
p675
ssV[-hub-][field-group][[[ems-core][entity-type][foqa-flights]][[weather][internal-field-group][wx-observations]]]
p676
(dp677
g12
g47
sVid
p678
g676
sVname
p679
VObservations
p680
ssV[-hub-][field][[[ems-core][entity-type][foqa-flights]][[ems-core][base-field][flight.random-sample]]]
p681
(dp682
Vtype
p683
Vnumber
p684
sg12
g13
sVid
p685
g681
sVname
p686
VRandom Number [0-1]
p687
ssV[-hub-][field-group][[[ems-core][entity-type][foqa-flights]][[[nav][type-link][runway-landing * foqa-flights]]][[nav][internal-field-group][landing-rwy-id-info]]]
p688
(dp689
g12
g47
sVid
p690
g688
sVname
p691
VID
p692
ssV[-hub-][field][[[ems-core][entity-type][foqa-flights]][[[weather][type-link][flight-weather * takeoff-prediction-at-dispatch]][[weather][type-link][taf-predictions * taf-records]]][[weather][base-field][taf.import-id]]]
p693
(dp694
Vtype
p695
Vnumber
p696
sg12
g13
sVid
p697
g693
sVname
p698
VTakeoff Forecast at Dispatch: Import ID
p699
ssV[-hub-][field][[[ems-core][entity-type][foqa-flights]][[[weather][type-link][flight-weather * alternate-prediction-at-takeoff]]][[weather][base-field][prediction.start-time]]]
p700
(dp701
Vtype
p702
VdateTime
p703
sg12
g13
sVid
p704
g700
sVname
p705
VAlternate Forecast at Takeoff: Start Time
p706
ssV[-hub-][field][[[ems-core][entity-type][foqa-flights]][[[weather][type-link][flight-weather * landing-prediction-at-takeoff]]][[weather][base-field][prediction.ceiling]]]
p707
(dp708
Vtype
p709
Vnumber
p710
sg12
g13
sVid
p711
g707
sVname
p712
VPlanned Landing Forecast at Takeoff: Ceiling (ft)
p713
ssV[-hub-][field][[[ems-core][entity-type][foqa-flights]][[ems-core][base-field][flight.transition-takeoff]]]
p714
(dp715
Vtype
p716
Vstring
p717
sg12
g13
sVid
p718
g714
sVname
p719
VDeparture Transition
p720
ssV[-hub-][field][[[ems-core][entity-type][foqa-flights]][[[nav][type-link][runway-landing * foqa-flights]]][[nav][base-field][nav-runway.displaced-threshold]]]
p721
(dp722
Vtype
p723
Vnumber
p724
sg12
g13
sVid
p725
g721
sVname
p726
VLanding Threshold Displacement (ft)
p727
ssV[-hub-][field][[[ems-core][entity-type][foqa-flights]][[[nav][type-link][runway-takeoff * foqa-flights]]][[nav][base-field][nav-runway.backcourse-loc-frequency]]]
p728
(dp729
Vtype
p730
Vnumber
p731
sg12
g13
sVid
p732
g728
sVname
p733
VTakeoff Localizer Frequency (Backcourse) (MHz)
p734
ssV[-hub-][field][[[ems-core][entity-type][foqa-flights]][[[nav][type-link][runway-landing * foqa-flights]]][[nav][base-field][nav-runway.short-runway]]]
p735
(dp736
Vtype
p737
Vboolean
p738
sg12
g13
sVid
p739
g735
sVname
p740
VLanding Short Runway
p741
ssV[-hub-][field][[[ems-core][entity-type][foqa-flights]][[[weather][type-link][flight-weather * takeoff-prediction-at-dispatch]]][[weather][base-field][prediction.wind-dir]]]
p742
(dp743
Vtype
p744
Vnumber
p745
sg12
g13
sVid
p746
g742
sVname
p747
VTakeoff Forecast at Dispatch: Wind Direction (deg)
p748
ssV[-hub-][field][[[ems-core][entity-type][foqa-flights]][[ems-core][base-field][flight.aircraft-version]]]
p749
(dp750
Vtype
p751
Vdiscrete
p752
sg12
g13
sVid
p753
g749
sVname
p754
VNose Number
p755
ssV[-hub-][field][[[ems-core][entity-type][foqa-flights]][[[weather][type-link][flight-weather * alternate-prediction-at-landing]][[weather][type-link][taf-predictions * taf-records]]][[weather][base-field][taf.import-id]]]
p756
(dp757
Vtype
p758
Vnumber
p759
sg12
g13
sVid
p760
g756
sVname
p761
VAlternate Forecast at Diversion: Import ID
p762
ssV[-hub-][field][[[ems-core][entity-type][foqa-flights]][[crew-contact][base-field][pf---hours-on-type]]]
p763
(dp764
Vtype
p765
Vnumber
p766
sg12
g13
sVid
p767
g763
sVname
p768
VPF - Hours in Type
p769
ssV[-hub-][field][[[ems-core][entity-type][foqa-flights]][[[weather][type-link][flight-weather * alternate-prediction-at-takeoff]][[weather][type-link][taf-predictions * taf-records]]][[weather][base-field][taf.issue-time]]]
p770
(dp771
Vtype
p772
VdateTime
p773
sg12
g13
sVid
p774
g770
sVname
p775
VAlternate Forecast at Takeoff: Issued At
p776
ssV[-hub-][field][[[ems-core][entity-type][foqa-flights]][[[weather][type-link][flight-weather * takeoff-prediction-at-dispatch]]][[weather][base-field][prediction.start-time]]]
p777
(dp778
Vtype
p779
VdateTime
p780
sg12
g13
sVid
p781
g777
sVname
p782
VTakeoff Forecast at Dispatch: Start Time
p783
ssV[-hub-][field][[[ems-core][entity-type][foqa-flights]][[ems-core][base-field][flight.client-data-1]]]
p784
(dp785
Vtype
p786
Vdiscrete
p787
sg12
g13
sVid
p788
g784
sVname
p789
VFleet Group
p790
ssV[-hub-][field][[[ems-core][entity-type][foqa-flights]][[[nav][type-link][runway-takeoff * foqa-flights]]][[nav][base-field][nav-runway.longitude-end]]]
p791
(dp792
Vtype
p793
Vnumber
p794
sg12
g13
sVid
p795
g791
sVname
p796
VTakeoff Runway Ending Longitude
p797
ssV[-hub-][field][[[ems-core][entity-type][foqa-flights]][[[nav][type-link][runway-takeoff * foqa-flights]][[nav][type-link][flight-runway * localizer]]][[nav][base-field][nav-navaid.elevation]]]
p798
(dp799
Vtype
p800
Vnumber
p801
sg12
g13
sVid
p802
g798
sVname
p803
VTakeoff Localizer Elevation (ft)
p804
ssV[-hub-][field][[[ems-core][entity-type][foqa-flights]][[[nav][type-link][runway-landing * foqa-flights]]][[nav][base-field][nav-runway.gs-longitude]]]
p805
(dp806
Vtype
p807
Vnumber
p808
sg12
g13
sVid
p809
g805
sVname
p810
VLanding Glideslope Longitude
p811
ssV[-hub-][field][[[ems-core][entity-type][foqa-flights]][[data-fusion][base-field][oooi-data-validated]]]
p812
(dp813
Vtype
p814
Vdiscrete
p815
sg12
g13
sVid
p816
g812
sVname
p817
VOOOI Data Validated
p818
ssV[-hub-][field-group][[[ems-core][entity-type][foqa-flights]][[[ems-core][type-link][downloads * flights]]][[ems-aux][internal-field-group][download-review]]]
p819
(dp820
g12
g47
sVid
p821
g819
sVname
p822
VDownload Review
p823
ssV[-hub-][field][[[ems-core][entity-type][foqa-flights]][[[nav][type-link][airport-takeoff * foqa-flights]]][[nav][base-field][nav-airport.type]]]
p824
(dp825
Vtype
p826
Vstring
p827
sg12
g13
sVid
p828
g824
sVname
p829
VTakeoff Airport Type
p830
ssV[-hub-][field-group][[[ems-core][entity-type][foqa-flights]][[ems-core][internal-field-group][nav-info-arrival]]]
p831
(dp832
g12
g47
sVid
p833
g831
sVname
p834
VArrival
p835
ssV[-hub-][field][[[ems-core][entity-type][foqa-flights]][[ems-core][base-field][flight.exist-takeoff-or-landing]]]
p836
(dp837
Vtype
p838
Vboolean
p839
sg12
g13
sVid
p840
g836
sVname
p841
VTakeoff or Landing Valid
p842
ssV[-hub-][field][[[ems-core][entity-type][foqa-flights]][[duplicate-detection][base-field][all-duplicate-partners-at-processing-time]]]
p843
(dp844
Vtype
p845
Vstring
p846
sg12
g13
sVid
p847
g843
sVname
p848
VAll Duplicate Partners At Processing Time
p849
ssV[-hub-][field-group][[[ems-core][entity-type][foqa-flights]][[ems-core][internal-field-group][nav-info-departure]]]
p850
(dp851
g12
g47
sVid
p852
g850
sVname
p853
VDeparture
p854
ssV[-hub-][field-group][[[ems-core][entity-type][foqa-flights]][[ems-aux][internal-field-group][flight-review]]]
p855
(dp856
g12
g47
sVid
p857
g855
sVname
p858
VFlight Review
p859
ssV[-hub-][field][[[ems-core][entity-type][foqa-flights]][[data-quality][base-field][phase-of-flight-tests]]]
p860
(dp861
Vtype
p862
Vdiscrete
p863
sg12
g13
sVid
p864
g860
sVname
p865
VPhase of Flight Tests
p866
ssV[-hub-][field][[[ems-core][entity-type][foqa-flights]][[ems-core][base-field][flight.client-data-0]]]
p867
(dp868
Vtype
p869
Vdiscrete
p870
sg12
g13
sVid
p871
g867
sVname
p872
VFlight Classification
p873
ssV[-hub-][field][[[ems-core][entity-type][foqa-flights]][[[nav][type-link][airport-landing * foqa-flights]]][[nav][base-field][nav-airport.state-string]]]
p874
(dp875
Vtype
p876
Vstring
p877
sg12
g13
sVid
p878
g874
sVname
p879
VLanding Airport State
p880
ssV[-hub-][field][[[ems-core][entity-type][foqa-flights]][[[weather][type-link][flight-weather * alternate-prediction-at-dispatch]]][[weather][base-field][prediction.ceiling]]]
p881
(dp882
Vtype
p883
Vnumber
p884
sg12
g13
sVid
p885
g881
sVname
p886
VAlternate Forecast at Dispatch: Ceiling (ft)
p887
ssV[-hub-][field-group][[[ems-core][entity-type][foqa-flights]][[weather][internal-field-group][wx-alternate-prediction-at-landing]]]
p888
(dp889
g12
g47
sVid
p890
g888
sVname
p891
VAlternate Forecast at Diversion
p892
ssV[-hub-][field][[[ems-core][entity-type][foqa-flights]][[[weather][type-link][flight-weather * alternate-prediction-at-takeoff]][[weather][type-link][taf-predictions * taf-records]]][[weather][base-field][taf.validity-stop]]]
p893
(dp894
Vtype
p895
VdateTime
p896
sg12
g13
sVid
p897
g893
sVname
p898
VAlternate Forecast at Takeoff: Valid Until
p899
ssV[-hub-][field][[[ems-core][entity-type][foqa-flights]][[data-lake-export-status][base-field][data-lake-export-status]]]
p900
(dp901
Vtype
p902
Vdiscrete
p903
sg12
g13
sVid
p904
g900
sVname
p905
VData Lake Export Status
p906
ssV[-hub-][field][[[ems-core][entity-type][foqa-flights]][[ems-core][base-field][flight.flight-num-str]]]
p907
(dp908
Vtype
p909
Vstring
p910
sg12
g13
sVid
p911
g907
sVname
p912
VFlight Number String
p913
ssV[-hub-][field][[[ems-core][entity-type][foqa-flights]][[ems-core][base-field][flight.runway-confidence-takeoff]]]
p914
(dp915
Vtype
p916
Vnumber
p917
sg12
g13
sVid
p918
g914
sVname
p919
VTakeoff Runway Confidence
p920
ssV[-hub-][field][[[ems-core][entity-type][foqa-flights]][[[weather][type-link][flight-weather * alternate-prediction-at-takeoff]]][[weather][base-field][prediction.uid]]]
p921
(dp922
Vtype
p923
Vnumber
p924
sg12
g13
sVid
p925
g921
sVname
p926
VAlternate Forecast at Takeoff: Prediction Record
p927
ssV[-hub-][field][[[ems-core][entity-type][foqa-flights]][[[nav][type-link][runway-landing * foqa-flights]]][[nav][base-field][nav-runway.longitude-end]]]
p928
(dp929
Vtype
p930
Vnumber
p931
sg12
g13
sVid
p932
g928
sVname
p933
VLanding Runway Ending Longitude
p934
ssV[-hub-][field][[[ems-core][entity-type][foqa-flights]][[data-fusion][base-field][flight-plan-available]]]
p935
(dp936
Vtype
p937
Vdiscrete
p938
sg12
g13
sVid
p939
g935
sVname
p940
VFlight Plan Available
p941
ssV[-hub-][field][[[ems-core][entity-type][foqa-flights]][[[weather][type-link][flight-weather * landing-prediction-at-takeoff]]][[weather][base-field][prediction.wind-dir]]]
p942
(dp943
Vtype
p944
Vnumber
p945
sg12
g13
sVid
p946
g942
sVname
p947
VPlanned Landing Forecast at Takeoff: Wind Direction (deg)
p948
ssV[-hub-][field][[[ems-core][entity-type][foqa-flights]][[[nav][type-link][airport-takeoff * foqa-flights]]][[nav][base-field][nav-airport.icao-code]]]
p949
(dp950
Vtype
p951
Vstring
p952
sg12
g13
sVid
p953
g949
sVname
p954
VTakeoff Airport ICAO Code
p955
ssV[-hub-][field-group][[[ems-core][entity-type][foqa-flights]][[weather][internal-field-group][wx-landing]]]
p956
(dp957
g12
g47
sVid
p958
g956
sVname
p959
VLanding Observation
p960
ssV[-hub-][field][[[ems-core][entity-type][foqa-flights]][[[nav][type-link][runway-takeoff * foqa-flights]]][[nav][base-field][nav-runway.loc-frequency]]]
p961
(dp962
Vtype
p963
Vnumber
p964
sg12
g13
sVid
p965
g961
sVname
p966
VTakeoff Localizer Frequency (MHz)
p967
ssV[-hub-][field-group][[[ems-core][entity-type][foqa-flights]][[[ems-aux][type-link][flights * fleets]]][[ems-aux][internal-field-group][fleet-info]]]
p968
(dp969
g12
g47
sVid
p970
g968
sVname
p971
VFleet Information
p972
ssV[-hub-][field][[[ems-core][entity-type][foqa-flights]][[[nav][type-link][runway-landing * foqa-flights]][[nav][type-link][flight-runway * localizer]]][[nav][base-field][nav-navaid.longitude]]]
p973
(dp974
Vtype
p975
Vnumber
p976
sg12
g13
sVid
p977
g973
sVname
p978
VLanding Localizer Longitude
p979
ssV[-hub-][field-group][[[ems-core][entity-type][foqa-flights]][[weather][internal-field-group][wx-predictions]]]
p980
(dp981
g12
g47
sVid
p982
g980
sVname
p983
VForecasts
p984
ssV[-hub-][field][[[ems-core][entity-type][foqa-flights]][[[weather][type-link][flight-weather * alternate-prediction-at-landing]][[weather][type-link][taf-predictions * taf-records]]][[weather][base-field][taf.header-text]]]
p985
(dp986
Vtype
p987
Vstring
p988
sg12
g13
sVid
p989
g985
sVname
p990
VAlternate Forecast at Diversion: Header Text
p991
ssV[-hub-][field][[[ems-core][entity-type][foqa-flights]][[crew-contact][base-field][crew-contact-date]]]
p992
(dp993
Vtype
p994
VdateTime
p995
sg12
g13
sVid
p996
g992
sVname
p997
VCrew Contact Date
p998
ssV[-hub-][field][[[ems-core][entity-type][foqa-flights]][[[nav][type-link][airport-takeoff * foqa-flights]]][[nav][base-field][nav-airport.country-string]]]
p999
(dp1000
Vtype
p1001
Vstring
p1002
sg12
g13
sVid
p1003
g999
sVname
p1004
VTakeoff Airport Country
p1005
ssV[-hub-][field][[[ems-core][entity-type][foqa-flights]][[[nav][type-link][runway-landing * foqa-flights]]][[nav][base-field][nav-runway.gs-elevation]]]
p1006
(dp1007
Vtype
p1008
Vnumber
p1009
sg12
g13
sVid
p1010
g1006
sVname
p1011
VLanding Glideslope Elevation (ft)
p1012
ssV[-hub-][field-group][[[ems-core][entity-type][foqa-flights]][[ems-core][internal-field-group][flight-info]]]
p1013
(dp1014
g12
g47
sVid
p1015
g1013
sVname
p1016
VFlight Information
p1017
ssV[-hub-][field][[[ems-core][entity-type][foqa-flights]][[ems-core][base-field][flight.procedure-landing]]]
p1018
(dp1019
Vtype
p1020
Vdiscrete
p1021
sg12
g13
sVid
p1022
g1018
sVname
p1023
VArrival
p1024
ssV[-hub-][field][[[ems-core][entity-type][foqa-flights]][[airframe-engine-field-set][base-field][airframe-engine]]]
p1025
(dp1026
Vtype
p1027
Vdiscrete
p1028
sg12
g13
sVid
p1029
g1025
sVname
p1030
VAirframe Engine Type
p1031
ssV[-hub-][field][[[ems-core][entity-type][foqa-flights]][[duplicate-detection][base-field][duplicate-detection--master-]]]
p1032
(dp1033
Vtype
p1034
Vdiscrete
p1035
sg12
g13
sVid
p1036
g1032
sVname
p1037
VDuplicate Detection (Master)
p1038
ssV[-hub-][field][[[ems-core][entity-type][foqa-flights]][[ems-core][base-field][flight.procedure-confidence-takeoff]]]
p1039
(dp1040
Vtype
p1041
Vnumber
p1042
sg12
g13
sVid
p1043
g1039
sVname
p1044
VDeparture Confidence
p1045
ssV[-hub-][field][[[ems-core][entity-type][foqa-flights]][[[weather][type-link][flight-weather * alternate-prediction-at-takeoff]]][[weather][base-field][prediction.wind-speed]]]
p1046
(dp1047
Vtype
p1048
Vnumber
p1049
sg12
g13
sVid
p1050
g1046
sVname
p1051
VAlternate Forecast at Takeoff: Wind Speed (kts)
p1052
ssV[-hub-][field][[[ems-core][entity-type][foqa-flights]][[[weather][type-link][flight-weather * landing-prediction-at-dispatch]]][[weather][base-field][prediction.raw-text]]]
p1053
(dp1054
Vtype
p1055
Vstring
p1056
sg12
g13
sVid
p1057
g1053
sVname
p1058
VPlanned Landing Forecast at Dispatch: Raw Text
p1059
ssV[-hub-][field][[[ems-core][entity-type][foqa-flights]][[source-flight-info][base-field][source-tail-number]]]
p1060
(dp1061
Vtype
p1062
Vstring
p1063
sg12
g13
sVid
p1064
g1060
sVname
p1065
VSource Tail Number
p1066
ssV[-hub-][field][[[ems-core][entity-type][foqa-flights]][[crew-contact][base-field][pnf---hours-on-type]]]
p1067
(dp1068
Vtype
p1069
Vnumber
p1070
sg12
g13
sVid
p1071
g1067
sVname
p1072
VPNF - Hours in Type
p1073
ssV[-hub-][field][[[ems-core][entity-type][foqa-flights]][[[nav][type-link][runway-takeoff * foqa-flights]][[nav][type-link][flight-runway * dme]]][[nav][base-field][nav-navaid.latitude]]]
p1074
(dp1075
Vtype
p1076
Vnumber
p1077
sg12
g13
sVid
p1078
g1074
sVname
p1079
VTakeoff DME Latitude
p1080
ssV[-hub-][field][[[ems-core][entity-type][foqa-flights]][[ems-core][base-field][flight-nav.takeoff-rwy-mag-hdg]]]
p1081
(dp1082
Vtype
p1083
Vnumber
p1084
sg12
g13
sVid
p1085
g1081
sVname
p1086
VTakeoff Runway Magnetic Heading (deg)
p1087
ssV[-hub-][field][[[ems-core][entity-type][foqa-flights]][[[nav][type-link][runway-takeoff * foqa-flights]]][[nav][base-field][nav-runway.loc-width]]]
p1088
(dp1089
Vtype
p1090
Vnumber
p1091
sg12
g13
sVid
p1092
g1088
sVname
p1093
VTakeoff Localizer Course Width (deg)
p1094
ssV[-hub-][field][[[ems-core][entity-type][foqa-flights]][[[weather][type-link][foqa-flights * landing-weather]]][[weather][base-field][metar.dewpoint]]]
p1095
(dp1096
Vtype
p1097
Vnumber
p1098
sg12
g13
sVid
p1099
g1095
sVname
p1100
VLanding Dewpoint (deg C)
p1101
ssV[-hub-][field][[[ems-core][entity-type][foqa-flights]][[[weather][type-link][flight-weather * alternate-prediction-at-landing]]][[weather][base-field][prediction.uid]]]
p1102
(dp1103
Vtype
p1104
Vnumber
p1105
sg12
g13
sVid
p1106
g1102
sVname
p1107
VAlternate Forecast at Diversion: Prediction Record
p1108
ssV[-hub-][field][[[ems-core][entity-type][foqa-flights]][[ems-core][base-field][flight.runway-takeoff-fdw]]]
p1109
(dp1110
Vtype
p1111
Vnumber
p1112
sg12
g13
sVid
p1113
g1109
sVname
p1114
VTakeoff Runway FDW ID Number
p1115
ssV[-hub-][field][[[ems-core][entity-type][foqa-flights]][[[weather][type-link][flight-weather * landing-prediction-at-dispatch]]][[weather][base-field][prediction.stop-time]]]
p1116
(dp1117
Vtype
p1118
VdateTime
p1119
sg12
g13
sVid
p1120
g1116
sVname
p1121
VPlanned Landing Forecast at Dispatch: Stop Time
p1122
ssV[-hub-][field][[[ems-core][entity-type][foqa-flights]][[[nav][type-link][runway-landing * foqa-flights]]][[nav][base-field][nav-runway.slope]]]
p1123
(dp1124
Vtype
p1125
Vnumber
p1126
sg12
g13
sVid
p1127
g1123
sVname
p1128
VLanding Runway Slope (%)
p1129
ssV[-hub-][field-group][[[ems-core][entity-type][foqa-flights]][[[ems-core][type-link][downloads * flights]]][[ems-core][internal-field-group][download-info]]]
p1130
(dp1131
g12
g47
sVid
p1132
g1130
sVname
p1133
VDownload Information
p1134
ssV[-hub-][field][[[ems-core][entity-type][foqa-flights]][[[nav][type-link][runway-landing * foqa-flights]]][[nav][base-field][nav-runway.omark-latitude]]]
p1135
(dp1136
Vtype
p1137
Vnumber
p1138
sg12
g13
sVid
p1139
g1135
sVname
p1140
VLanding Outer Marker Latitude
p1141
ssV[-hub-][field][[[ems-core][entity-type][foqa-flights]][[[nav][type-link][runway-landing * foqa-flights]]][[nav][base-field][nav-runway.threshold-longitude]]]
p1142
(dp1143
Vtype
p1144
Vnumber
p1145
sg12
g13
sVid
p1146
g1142
sVname
p1147
VLanding Threshold Longitude
p1148
ssV[-hub-][field][[[ems-core][entity-type][foqa-flights]][[data-lake-export-status][base-field][date-of-export-to-data-lake]]]
p1149
(dp1150
Vtype
p1151
VdateTime
p1152
sg12
g13
sVid
p1153
g1149
sVname
p1154
VDate of Export to Data Lake
p1155
ssV[-hub-][field][[[ems-core][entity-type][foqa-flights]][[data-fusion][base-field][metar-takeoff-data-available]]]
p1156
(dp1157
Vtype
p1158
Vdiscrete
p1159
sg12
g13
sVid
p1160
g1156
sVname
p1161
VMETAR Takeoff Data Available
p1162
ssV[-hub-][field][[[ems-core][entity-type][foqa-flights]][[[weather][type-link][flight-weather * takeoff-prediction-at-dispatch]]][[weather][base-field][prediction.uid]]]
p1163
(dp1164
Vtype
p1165
Vnumber
p1166
sg12
g13
sVid
p1167
g1163
sVname
p1168
VTakeoff Forecast at Dispatch: Prediction Record
p1169
ssV[-hub-][field][[[ems-core][entity-type][foqa-flights]][[crew-contact][base-field][familiarity]]]
p1170
(dp1171
Vtype
p1172
Vdiscrete
p1173
sg12
g13
sVid
p1174
g1170
sVname
p1175
VFamiliarity
p1176
ssV[-hub-][field-group][[[ems-core][entity-type][foqa-flights]][[source-flight-info][internal-field-group][source-system-information]]]
p1177
(dp1178
g12
g47
sVid
p1179
g1177
sVname
p1180
VSource System Information
p1181
ssV[-hub-][field][[[ems-core][entity-type][foqa-flights]][[[weather][type-link][flight-weather * alternate-prediction-at-dispatch]]][[weather][base-field][prediction.raw-text]]]
p1182
(dp1183
Vtype
p1184
Vstring
p1185
sg12
g13
sVid
p1186
g1182
sVname
p1187
VAlternate Forecast at Dispatch: Raw Text
p1188
ssV[-hub-][field][[[ems-core][entity-type][foqa-flights]][[[nav][type-link][runway-takeoff * foqa-flights]]][[nav][base-field][nav-runway.slope]]]
p1189
(dp1190
Vtype
p1191
Vnumber
p1192
sg12
g13
sVid
p1193
g1189
sVname
p1194
VTakeoff Runway Slope (%)
p1195
ssV[-hub-][field-group][[[ems-core][entity-type][foqa-flights]][[ems-core][internal-field-group][aircraft-info]]]
p1196
(dp1197
g12
g47
sVid
p1198
g1196
sVname
p1199
VAircraft Information
p1200
ssV[-hub-][field][[[ems-core][entity-type][foqa-flights]][[[weather][type-link][flight-weather * alternate-prediction-at-landing]]][[weather][base-field][prediction.stop-time]]]
p1201
(dp1202
Vtype
p1203
VdateTime
p1204
sg12
g13
sVid
p1205
g1201
sVname
p1206
VAlternate Forecast at Diversion: Stop Time
p1207
ssV[-hub-][field][[[ems-core][entity-type][foqa-flights]][[ems-core][base-field][flight.airport-takeoff-fdw]]]
p1208
(dp1209
Vtype
p1210
Vnumber
p1211
sg12
g13
sVid
p1212
g1208
sVname
p1213
VTakeoff Airport FDW ID Number
p1214
ssV[-hub-][field][[[ems-core][entity-type][foqa-flights]][[[nav][type-link][airport-takeoff * foqa-flights]]][[nav][base-field][nav-airport.state-string]]]
p1215
(dp1216
Vtype
p1217
Vstring
p1218
sg12
g13
sVid
p1219
g1215
sVname
p1220
VTakeoff Airport State
p1221
ssV[-hub-][field][[[ems-core][entity-type][foqa-flights]][[[weather][type-link][foqa-flights * takeoff-weather]]][[weather][base-field][metar.temperature]]]
p1222
(dp1223
Vtype
p1224
Vnumber
p1225
sg12
g13
sVid
p1226
g1222
sVname
p1227
VTakeoff Temperature (deg C)
p1228
ssV[-hub-][field][[[ems-core][entity-type][foqa-flights]][[[weather][type-link][flight-weather * takeoff-prediction-at-dispatch]][[weather][type-link][taf-predictions * taf-records]]][[weather][base-field][taf.validity-start]]]
p1229
(dp1230
Vtype
p1231
VdateTime
p1232
sg12
g13
sVid
p1233
g1229
sVname
p1234
VTakeoff Forecast at Dispatch: Valid From
p1235
ssV[-hub-][field-group][[[ems-core][entity-type][foqa-flights]][[ems-core][internal-field-group][nav-info-landing-airport]]]
p1236
(dp1237
g12
g47
sVid
p1238
g1236
sVname
p1239
VAirport
p1240
ssV[-hub-][field][[[ems-core][entity-type][foqa-flights]][[[weather][type-link][flight-weather * landing-prediction-at-dispatch]][[weather][type-link][taf-predictions * taf-records]]][[weather][base-field][taf.header-text]]]
p1241
(dp1242
Vtype
p1243
Vstring
p1244
sg12
g13
sVid
p1245
g1241
sVname
p1246
VPlanned Landing Forecast at Dispatch: Header Text
p1247
ssV[-hub-][field][[[ems-core][entity-type][foqa-flights]][[crew-contact][base-field][pilot-not-flying]]]
p1248
(dp1249
Vtype
p1250
Vdiscrete
p1251
sg12
g13
sVid
p1252
g1248
sVname
p1253
VPilot Not Flying
p1254
ssV[-hub-][field][[[ems-core][entity-type][foqa-flights]][[[weather][type-link][flight-weather * alternate-prediction-at-takeoff]]][[weather][base-field][prediction.stop-time]]]
p1255
(dp1256
Vtype
p1257
VdateTime
p1258
sg12
g13
sVid
p1259
g1255
sVname
p1260
VAlternate Forecast at Takeoff: Stop Time
p1261
ssV[-hub-][field][[[ems-core][entity-type][foqa-flights]][[[nav][type-link][runway-landing * foqa-flights]]][[nav][base-field][nav-runway.landing-dist]]]
p1262
(dp1263
Vtype
p1264
Vnumber
p1265
sg12
g13
sVid
p1266
g1262
sVname
p1267
VLanding Runway Landing Distance (ft)
p1268
ssV[-hub-][field][[[ems-core][entity-type][foqa-flights]][[[weather][type-link][flight-weather * landing-prediction-at-dispatch]]][[weather][base-field][prediction.uid]]]
p1269
(dp1270
Vtype
p1271
Vnumber
p1272
sg12
g13
sVid
p1273
g1269
sVname
p1274
VPlanned Landing Forecast at Dispatch: Prediction Record
p1275
ssV[-hub-][field][[[ems-core][entity-type][foqa-flights]][[[weather][type-link][flight-weather * landing-prediction-at-takeoff]]][[weather][base-field][prediction.wind-speed]]]
p1276
(dp1277
Vtype
p1278
Vnumber
p1279
sg12
g13
sVid
p1280
g1276
sVname
p1281
VPlanned Landing Forecast at Takeoff: Wind Speed (kts)
p1282
ssV[-hub-][field][[[ems-core][entity-type][foqa-flights]][[[weather][type-link][flight-weather * takeoff-prediction-at-dispatch]][[weather][type-link][taf-predictions * taf-records]]][[weather][base-field][taf.issue-time]]]
p1283
(dp1284
Vtype
p1285
VdateTime
p1286
sg12
g13
sVid
p1287
g1283
sVname
p1288
VTakeoff Forecast at Dispatch: Issued At
p1289
ssV[-hub-][field][[[ems-core][entity-type][foqa-flights]][[[nav][type-link][runway-landing * foqa-flights]]][[nav][base-field][nav-runway.longitude-start]]]
p1290
(dp1291
Vtype
p1292
Vnumber
p1293
sg12
g13
sVid
p1294
g1290
sVname
p1295
VLanding Runway Starting Longitude
p1296
ssV[-hub-][field][[[ems-core][entity-type][foqa-flights]][[ems-core][base-field][flight.masked-date]]]
p1297
(dp1298
Vtype
p1299
VdateTime
p1300
sg12
g13
sVid
p1301
g1297
sVname
p1302
VFlight Date (Month/Year)
p1303
ssV[-hub-][field][[[ems-core][entity-type][foqa-flights]][[[weather][type-link][flight-weather * alternate-prediction-at-takeoff]]][[weather][base-field][prediction.wind-dir]]]
p1304
(dp1305
Vtype
p1306
Vnumber
p1307
sg12
g13
sVid
p1308
g1304
sVname
p1309
VAlternate Forecast at Takeoff: Wind Direction (deg)
p1310
ssV[-hub-][field][[[ems-core][entity-type][foqa-flights]][[odw-logical][base-field][fdw-flight-odw-link.odw-flight]]]
p1311
(dp1312
Vtype
p1313
Vnumber
p1314
sg12
g13
sVid
p1315
g1311
sVname
p1316
VMatched ODW Flight Record
p1317
ssV[-hub-][field-group][[[ems-core][entity-type][foqa-flights]][[weather][internal-field-group][wx-alternate-prediction-at-dispatch]]]
p1318
(dp1319
g12
g47
sVid
p1320
g1318
sVname
p1321
VAlternate Forecast at Dispatch
p1322
ssV[-hub-][field][[[ems-core][entity-type][foqa-flights]][[[weather][type-link][flight-weather * landing-prediction-at-dispatch]][[weather][type-link][taf-predictions * taf-records]]][[weather][base-field][taf.validity-stop]]]
p1323
(dp1324
Vtype
p1325
VdateTime
p1326
sg12
g13
sVid
p1327
g1323
sVname
p1328
VPlanned Landing Forecast at Dispatch: Valid Until
p1329
ssV[-hub-][field][[[ems-core][entity-type][foqa-flights]][[ems-core][base-field][flight.fleet]]]
p1330
(dp1331
Vtype
p1332
Vdiscrete
p1333
sg12
g13
sVid
p1334
g1330
sVname
p1335
VFleet
p1336
ssV[-hub-][field][[[ems-core][entity-type][foqa-flights]][[source-flight-info][base-field][source-fleet-id]]]
p1337
(dp1338
Vtype
p1339
Vnumber
p1340
sg12
g13
sVid
p1341
g1337
sVname
p1342
VSource Fleet ID
p1343
ssV[-hub-][field-group][[[ems-core][entity-type][foqa-flights]][[ems-core][internal-field-group][nav-info-landing-rwy]]]
p1344
(dp1345
g12
g47
sVid
p1346
g1344
sVname
p1347
VRunway
p1348
ssV[-hub-][field][[[ems-core][entity-type][foqa-flights]][[ems-core][base-field][flight.transition-landing]]]
p1349
(dp1350
Vtype
p1351
Vstring
p1352
sg12
g13
sVid
p1353
g1349
sVname
p1354
VArrival Transition
p1355
ssV[-hub-][field-group][[[ems-core][entity-type][foqa-flights]][[ems-core][internal-field-group][nav-info-landing]]]
p1356
(dp1357
g12
g47
sVid
p1358
g1356
sVname
p1359
VLanding
p1360
ssV[-hub-][field][[[ems-core][entity-type][foqa-flights]][[[nav][type-link][runway-landing * foqa-flights]]][[nav][base-field][nav-runway.ILSBearing-course]]]
p1361
(dp1362
Vtype
p1363
Vnumber
p1364
sg12
g13
sVid
p1365
g1361
sVname
p1366
VLanding ILS Bearing Course (deg)
p1367
ssV[-hub-][field][[[ems-core][entity-type][foqa-flights]][[duplicate-detection][base-field][number-of-partners]]]
p1368
(dp1369
Vtype
p1370
Vnumber
p1371
sg12
g13
sVid
p1372
g1368
sVname
p1373
VNumber of Partners
p1374
ssV[-hub-][field][[[ems-core][entity-type][foqa-flights]][[[nav][type-link][airport-takeoff * foqa-flights]]][[nav][base-field][nav-airport.elevation]]]
p1375
(dp1376
Vtype
p1377
Vnumber
p1378
sg12
g13
sVid
p1379
g1375
sVname
p1380
VTakeoff Airport Elevation (ft)
p1381
ssV[-hub-][field][[[ems-core][entity-type][foqa-flights]][[[weather][type-link][flight-weather * landing-prediction-at-takeoff]][[weather][type-link][taf-predictions * taf-records]]][[weather][base-field][taf.validity-stop]]]
p1382
(dp1383
Vtype
p1384
VdateTime
p1385
sg12
g13
sVid
p1386
g1382
sVname
p1387
VPlanned Landing Forecast at Takeoff: Valid Until
p1388
ssV[-hub-][field][[[ems-core][entity-type][foqa-flights]][[ems-core][base-field][flight-nav.landing-rwy-mag-hdg]]]
p1389
(dp1390
Vtype
p1391
Vnumber
p1392
sg12
g13
sVid
p1393
g1389
sVname
p1394
VLanding Runway Magnetic Heading (deg)
p1395
ssV[-hub-][field][[[ems-core][entity-type][foqa-flights]][[[nav][type-link][runway-takeoff * foqa-flights]][[nav][type-link][flight-runway * localizer]]][[nav][base-field][nav-navaid.latitude]]]
p1396
(dp1397
Vtype
p1398
Vnumber
p1399
sg12
g13
sVid
p1400
g1396
sVname
p1401
VTakeoff Localizer Latitude
p1402
ssV[-hub-][field][[[ems-core][entity-type][foqa-flights]][[[weather][type-link][flight-weather * landing-prediction-at-dispatch]]][[weather][base-field][prediction.start-time]]]
p1403
(dp1404
Vtype
p1405
VdateTime
p1406
sg12
g13
sVid
p1407
g1403
sVname
p1408
VPlanned Landing Forecast at Dispatch: Start Time
p1409
ssV[-hub-][field-group][[[ems-core][entity-type][foqa-flights]][[ems-dal-fdwflightconstantsfromodw][internal-field-group][f0000000-f000-f000-f000-f00000000000]]]
p1410
(dp1411
g12
g47
sVid
p1412
g1410
sVname
p1413
VOperational Information
p1414
ssV[-hub-][field-group][[[ems-core][entity-type][foqa-flights]][[data-quality][internal-field-group][data-quality]]]
p1415
(dp1416
g12
g47
sVid
p1417
g1415
sVname
p1418
VData Quality
p1419
ssV[-hub-][field][[[ems-core][entity-type][foqa-flights]][[[weather][type-link][flight-weather * alternate-prediction-at-landing]]][[weather][base-field][prediction.wind-dir]]]
p1420
(dp1421
Vtype
p1422
Vnumber
p1423
sg12
g13
sVid
p1424
g1420
sVname
p1425
VAlternate Forecast at Diversion: Wind Direction (deg)
p1426
ssV[-hub-][field-group][[[ems-core][entity-type][foqa-flights]][[[nav][type-link][runway-landing * foqa-flights]]][[nav][internal-field-group][landing-rwy-geometry-info]]]
p1427
(dp1428
g12
g47
sVid
p1429
g1427
sVname
p1430
VGeometry
p1431
ssV[-hub-][field][[[ems-core][entity-type][foqa-flights]][[ems-core][base-field][flight.raw-data-file-size]]]
p1432
(dp1433
Vtype
p1434
Vnumber
p1435
sg12
g13
sVid
p1436
g1432
sVname
p1437
VRaw Data File Size (MB)
p1438
ssV[-hub-][field][[[ems-core][entity-type][foqa-flights]][[ems-core][base-field][flight.flight-num-int]]]
p1439
(dp1440
Vtype
p1441
Vnumber
p1442
sg12
g13
sVid
p1443
g1439
sVname
p1444
VFlight Number
p1445
ssV[-hub-][field][[[ems-core][entity-type][foqa-flights]][[[nav][type-link][runway-landing * foqa-flights]]][[nav][base-field][nav-runway.stopway]]]
p1446
(dp1447
Vtype
p1448
Vnumber
p1449
sg12
g13
sVid
p1450
g1446
sVname
p1451
VLanding Stopway Length (ft)
p1452
ssV[-hub-][field][[[ems-core][entity-type][foqa-flights]][[[weather][type-link][foqa-flights * landing-weather]]][[weather][base-field][metar.visibility]]]
p1453
(dp1454
Vtype
p1455
Vnumber
p1456
sg12
g13
sVid
p1457
g1453
sVname
p1458
VLanding Visibility (sm)
p1459
ssV[-hub-][field][[[ems-core][entity-type][foqa-flights]][[[weather][type-link][flight-weather * landing-prediction-at-takeoff]][[weather][type-link][taf-predictions * taf-records]]][[weather][base-field][taf.validity-start]]]
p1460
(dp1461
Vtype
p1462
VdateTime
p1463
sg12
g13
sVid
p1464
g1460
sVname
p1465
VPlanned Landing Forecast at Takeoff: Valid From
p1466
ssV[-hub-][field][[[ems-core][entity-type][foqa-flights]][[[nav][type-link][airport-landing * foqa-flights]]][[nav][base-field][nav-airport.longitude]]]
p1467
(dp1468
Vtype
p1469
Vnumber
p1470
sg12
g13
sVid
p1471
g1467
sVname
p1472
VLanding Airport Longitude
p1473
ssV[-hub-][field][[[ems-core][entity-type][foqa-flights]][[[weather][type-link][flight-weather * alternate-prediction-at-dispatch]][[weather][type-link][taf-predictions * taf-records]]][[weather][base-field][taf.validity-start]]]
p1474
(dp1475
Vtype
p1476
VdateTime
p1477
sg12
g13
sVid
p1478
g1474
sVname
p1479
VAlternate Forecast at Dispatch: Valid From
p1480
ssV[-hub-][field-group][[[ems-core][entity-type][foqa-flights]][[weather][internal-field-group][wx-takeoff-prediction-at-dispatch]]]
p1481
(dp1482
g12
g47
sVid
p1483
g1481
sVname
p1484
VTakeoff Forecast at Dispatch
p1485
ssV[-hub-][field][[[ems-core][entity-type][foqa-flights]][[[nav][type-link][runway-landing * foqa-flights]]][[nav][base-field][nav-runway.backcourse-loc-frequency]]]
p1486
(dp1487
Vtype
p1488
Vnumber
p1489
sg12
g13
sVid
p1490
g1486
sVname
p1491
VLanding Localizer Frequency (Backcourse) (MHz)
p1492
ssV[ems-core][entity-type][foqa-flights]
p1493
(dp1494
S'name'
p1495
VFDW Flight
p1496
sg12
S'database'
p1497
sVid
p1498
g1493
sVsingularName
p1499
g1496
sVpluralName
p1500
VFDW Flights
p1501
ssV[-hub-][field][[[ems-core][entity-type][foqa-flights]][[[weather][type-link][foqa-flights * landing-weather]]][[weather][base-field][metar.wind-dir]]]
p1502
(dp1503
Vtype
p1504
Vnumber
p1505
sg12
g13
sVid
p1506
g1502
sVname
p1507
VLanding Wind Direction (deg)
p1508
ssV[-hub-][field][[[ems-core][entity-type][foqa-flights]][[[weather][type-link][flight-weather * alternate-prediction-at-landing]]][[weather][base-field][prediction.start-time]]]
p1509
(dp1510
Vtype
p1511
VdateTime
p1512
sg12
g13
sVid
p1513
g1509
sVname
p1514
VAlternate Forecast at Diversion: Start Time
p1515
ssV[-hub-][field-group][[[ems-core][entity-type][foqa-flights]][[[nav][type-link][runway-landing * foqa-flights]]][[nav][internal-field-group][landing-rwy-ils-info]]]
p1516
(dp1517
g12
g47
sVid
p1518
g1516
sVname
p1519
VILS
p1520
ssV[-hub-][field][[[ems-core][entity-type][foqa-flights]][[data-fusion][base-field][metar-landing-data-available]]]
p1521
(dp1522
Vtype
p1523
Vdiscrete
p1524
sg12
g13
sVid
p1525
g1521
sVname
p1526
VMETAR Landing Data Available
p1527
ssV[-hub-][field][[[ems-core][entity-type][foqa-flights]][[redaction-information][base-field][gmt-redacted]]]
p1528
(dp1529
Vtype
p1530
Vdiscrete
p1531
sg12
g13
sVid
p1532
g1528
sVname
p1533
VGMT Redaction Info
p1534
ssV[-hub-][field][[[ems-core][entity-type][foqa-flights]][[data-fusion][base-field][flight-plan-waypoint-data-available]]]
p1535
(dp1536
Vtype
p1537
Vdiscrete
p1538
sg12
g13
sVid
p1539
g1535
sVname
p1540
VFlight Plan Waypoint Data Available
p1541
ssV[-hub-][field][[[ems-core][entity-type][foqa-flights]][[[nav][type-link][runway-landing * foqa-flights]]][[nav][base-field][nav-runway.mmark-elevation]]]
p1542
(dp1543
Vtype
p1544
Vnumber
p1545
sg12
g13
sVid
p1546
g1542
sVname
p1547
VLanding Middle Marker Elevation (ft)
p1548
ssV[-hub-][field][[[ems-core][entity-type][foqa-flights]][[[nav][type-link][runway-landing * foqa-flights]]][[nav][base-field][nav-runway.elevation-start]]]
p1549
(dp1550
Vtype
p1551
Vnumber
p1552
sg12
g13
sVid
p1553
g1549
sVname
p1554
VLanding Runway Starting Elevation (ft)
p1555
ssV[-hub-][field-group][[[ems-core][entity-type][foqa-flights]][[data-lake-export-status][internal-field-group][data-lake]]]
p1556
(dp1557
g12
g47
sVid
p1558
g1556
sVname
p1559
VData Lake
p1560
ssV[-hub-][field][[[ems-core][entity-type][foqa-flights]][[[weather][type-link][flight-weather * landing-prediction-at-dispatch]][[weather][type-link][taf-predictions * taf-records]]][[weather][base-field][taf.issue-time]]]
p1561
(dp1562
Vtype
p1563
VdateTime
p1564
sg12
g13
sVid
p1565
g1561
sVname
p1566
VPlanned Landing Forecast at Dispatch: Issued At
p1567
ssV[-hub-][field][[[ems-core][entity-type][foqa-flights]][[[nav][type-link][runway-landing * foqa-flights]]][[nav][base-field][nav-runway.omark-elevation]]]
p1568
(dp1569
Vtype
p1570
Vnumber
p1571
sg12
g13
sVid
p1572
g1568
sVname
p1573
VLanding Outer Marker Elevation (ft)
p1574
ssV[-hub-][field][[[ems-core][entity-type][foqa-flights]][[[nav][type-link][runway-takeoff * foqa-flights]]][[nav][base-field][nav-runway.parallel]]]
p1575
(dp1576
Vtype
p1577
Vboolean
p1578
sg12
g13
sVid
p1579
g1575
sVname
p1580
VTakeoff Is Parallel
p1581
ssV[-hub-][field][[[ems-core][entity-type][foqa-flights]][[data-quality][base-field][parameter-validation-(0-188)-tests]]]
p1582
(dp1583
Vtype
p1584
Vdiscrete
p1585
sg12
g13
sVid
p1586
g1582
sVname
p1587
VParameter Validation (0-188) Tests
p1588
ssV[-hub-][field][[[ems-core][entity-type][foqa-flights]][[ems-core][base-field][flight.weather-landing-delta]]]
p1589
(dp1590
Vtype
p1591
Vnumber
p1592
sg12
g13
sVid
p1593
g1589
sVname
p1594
VLanding Observation Time Delta (minutes before touchdown)
p1595
ssV[-hub-][field][[[ems-core][entity-type][foqa-flights]][[[ems-aux][type-link][flights * fleets]]][[ems-aux][base-field][fleet.config-type]]]
p1596
(dp1597
Vtype
p1598
Vdiscrete
p1599
sg12
g13
sVid
p1600
g1596
sVname
p1601
VFlight Configuration Type
p1602
ssV[-hub-][field][[[ems-core][entity-type][foqa-flights]][[[weather][type-link][flight-weather * alternate-prediction-at-takeoff]]][[weather][base-field][prediction.raw-text]]]
p1603
(dp1604
Vtype
p1605
Vstring
p1606
sg12
g13
sVid
p1607
g1603
sVname
p1608
VAlternate Forecast at Takeoff: Raw Text
p1609
ssV[-hub-][field][[[ems-core][entity-type][foqa-flights]][[[nav][type-link][runway-landing * foqa-flights]]][[nav][base-field][nav-runway.omark-longitude]]]
p1610
(dp1611
Vtype
p1612
Vnumber
p1613
sg12
g13
sVid
p1614
g1610
sVname
p1615
VLanding Outer Marker Longitude
p1616
ssV[-hub-][field][[[ems-core][entity-type][foqa-flights]][[[nav][type-link][runway-landing * foqa-flights]]][[nav][base-field][nav-runway.loc-width]]]
p1617
(dp1618
Vtype
p1619
Vnumber
p1620
sg12
g13
sVid
p1621
g1617
sVname
p1622
VLanding Localizer Course Width (deg)
p1623
ssV[-hub-][field-group][[[ems-core][entity-type][foqa-flights]][[[nav][type-link][runway-takeoff * foqa-flights]]][[nav][internal-field-group][takeoff-rwy-id-info]]]
p1624
(dp1625
g12
g47
sVid
p1626
g1624
sVname
p1627
VID
p1628
ssV[-hub-][field][[[ems-core][entity-type][foqa-flights]][[[nav][type-link][runway-landing * foqa-flights]][[nav][type-link][flight-runway * localizer]]][[nav][base-field][nav-navaid.latitude]]]
p1629
(dp1630
Vtype
p1631
Vnumber
p1632
sg12
g13
sVid
p1633
g1629
sVname
p1634
VLanding Localizer Latitude
p1635
ssV[-hub-][field][[[ems-core][entity-type][foqa-flights]][[[weather][type-link][foqa-flights * landing-weather]]][[weather][base-field][metar.ceiling]]]
p1636
(dp1637
Vtype
p1638
Vnumber
p1639
sg12
g13
sVid
p1640
g1636
sVname
p1641
VLanding Ceiling (ft)
p1642
ssV[-hub-][field][[[ems-core][entity-type][foqa-flights]][[[nav][type-link][runway-takeoff * foqa-flights]]][[nav][base-field][nav-runway.width]]]
p1643
(dp1644
Vtype
p1645
Vnumber
p1646
sg12
g13
sVid
p1647
g1643
sVname
p1648
VTakeoff Runway Width (ft)
p1649
ssV[-hub-][field][[[ems-core][entity-type][foqa-flights]][[[weather][type-link][flight-weather * alternate-prediction-at-dispatch]]][[weather][base-field][prediction.start-time]]]
p1650
(dp1651
Vtype
p1652
VdateTime
p1653
sg12
g13
sVid
p1654
g1650
sVname
p1655
VAlternate Forecast at Dispatch: Start Time
p1656
ssV[-hub-][field][[[ems-core][entity-type][foqa-flights]][[data-fusion][base-field][preferred-gross-weight-source]]]
p1657
(dp1658
Vtype
p1659
Vdiscrete
p1660
sg12
g13
sVid
p1661
g1657
sVname
p1662
VPreferred Gross Weight Source
p1663
ssV[-hub-][field][[[ems-core][entity-type][foqa-flights]][[[nav][type-link][runway-landing * foqa-flights]][[nav][type-link][flight-runway * localizer]]][[nav][base-field][nav-navaid.elevation]]]
p1664
(dp1665
Vtype
p1666
Vnumber
p1667
sg12
g13
sVid
p1668
g1664
sVname
p1669
VLanding Localizer Elevation (ft)
p1670
ssV[-hub-][field][[[ems-core][entity-type][foqa-flights]][[[nav][type-link][runway-takeoff * foqa-flights]]][[nav][base-field][nav-runway.latitude-start]]]
p1671
(dp1672
Vtype
p1673
Vnumber
p1674
sg12
g13
sVid
p1675
g1671
sVname
p1676
VTakeoff Runway Starting Latitude
p1677
ssV[-hub-][field][[[ems-core][entity-type][foqa-flights]][[data-quality][base-field][manual-review]]]
p1678
(dp1679
Vtype
p1680
Vdiscrete
p1681
sg12
g13
sVid
p1682
g1678
sVname
p1683
VManual Review
p1684
ssV[-hub-][field][[[ems-core][entity-type][foqa-flights]][[ems-core][base-field][flight.exist-landing]]]
p1685
(dp1686
Vtype
p1687
Vboolean
p1688
sg12
g13
sVid
p1689
g1685
sVname
p1690
VLanding Valid
p1691
ssV[-hub-][field][[[ems-core][entity-type][foqa-flights]][[ems-core][base-field][flight.hours]]]
p1692
(dp1693
Vtype
p1694
Vnumber
p1695
sg12
g13
sVid
p1696
g1692
sVname
p1697
VHours of Data
p1698
ssV[-hub-][field][[[ems-core][entity-type][foqa-flights]][[[nav][type-link][runway-landing * foqa-flights]]][[nav][base-field][nav-runway.threshold-to-glideslope-distance]]]
p1699
(dp1700
Vtype
p1701
Vnumber
p1702
sg12
g13
sVid
p1703
g1699
sVname
p1704
VLanding Threshold To Glideslope Distance (ft)
p1705
ssV[-hub-][field][[[ems-core][entity-type][foqa-flights]][[redaction-information][base-field][flight-day-redacted]]]
p1706
(dp1707
Vtype
p1708
Vdiscrete
p1709
sg12
g13
sVid
p1710
g1706
sVname
p1711
VFlight Day Redaction Info
p1712
ssV[-hub-][field][[[ems-core][entity-type][foqa-flights]][[[weather][type-link][flight-weather * takeoff-prediction-at-dispatch]]][[weather][base-field][prediction.raw-text]]]
p1713
(dp1714
Vtype
p1715
Vstring
p1716
sg12
g13
sVid
p1717
g1713
sVname
p1718
VTakeoff Forecast at Dispatch: Raw Text
p1719
ssV[-hub-][field][[[ems-core][entity-type][foqa-flights]][[data-fusion][base-field][metar-takeoff-data-validated]]]
p1720
(dp1721
Vtype
p1722
Vdiscrete
p1723
sg12
g13
sVid
p1724
g1720
sVname
p1725
VMETAR Takeoff Data Validated
p1726
ssV[-hub-][field][[[ems-core][entity-type][foqa-flights]][[[nav][type-link][runway-takeoff * foqa-flights]][[nav][type-link][flight-runway * localizer]]][[nav][base-field][nav-navaid.longitude]]]
p1727
(dp1728
Vtype
p1729
Vnumber
p1730
sg12
g13
sVid
p1731
g1727
sVname
p1732
VTakeoff Localizer Longitude
p1733
ssV[-hub-][field][[[ems-core][entity-type][foqa-flights]][[[weather][type-link][foqa-flights * takeoff-weather]]][[weather][base-field][metar.wind-speed]]]
p1734
(dp1735
Vtype
p1736
Vnumber
p1737
sg12
g13
sVid
p1738
g1734
sVname
p1739
VTakeoff Wind Speed (kts)
p1740
ssV[-hub-][field][[[ems-core][entity-type][foqa-flights]][[[nav][type-link][runway-landing * foqa-flights]]][[nav][base-field][nav-runway.gs-latitude]]]
p1741
(dp1742
Vtype
p1743
Vnumber
p1744
sg12
g13
sVid
p1745
g1741
sVname
p1746
VLanding Glideslope Latitude
p1747
ssV[-hub-][field][[[ems-core][entity-type][foqa-flights]][[source-flight-info][base-field][source-flight-record]]]
p1748
(dp1749
Vtype
p1750
Vnumber
p1751
sg12
g13
sVid
p1752
g1748
sVname
p1753
VSource Flight Record
p1754
ssV[-hub-][field][[[ems-core][entity-type][foqa-flights]][[duplicate-detection][base-field][manual-review]]]
p1755
(dp1756
Vtype
p1757
Vdiscrete
p1758
sg12
g13
sVid
p1759
g1755
sVname
p1760
VManual Review
p1761
ssV[-hub-][field][[[ems-core][entity-type][foqa-flights]][[[weather][type-link][flight-weather * alternate-prediction-at-landing]][[weather][type-link][taf-predictions * taf-records]]][[weather][base-field][taf.validity-start]]]
p1762
(dp1763
Vtype
p1764
VdateTime
p1765
sg12
g13
sVid
p1766
g1762
sVname
p1767
VAlternate Forecast at Diversion: Valid From
p1768
ssV[-hub-][field][[[ems-core][entity-type][foqa-flights]][[[weather][type-link][flight-weather * alternate-prediction-at-dispatch]][[weather][type-link][taf-predictions * taf-records]]][[weather][base-field][taf.import-id]]]
p1769
(dp1770
Vtype
p1771
Vnumber
p1772
sg12
g13
sVid
p1773
g1769
sVname
p1774
VAlternate Forecast at Dispatch: Import ID
p1775
ssV[-hub-][field][[[ems-core][entity-type][foqa-flights]][[[nav][type-link][airport-landing * foqa-flights]]][[nav][base-field][nav-airport.elevation]]]
p1776
(dp1777
Vtype
p1778
Vnumber
p1779
sg12
g13
sVid
p1780
g1776
sVname
p1781
VLanding Airport Elevation (ft)
p1782
ssV[-hub-][field][[[ems-core][entity-type][foqa-flights]][[[weather][type-link][flight-weather * takeoff-prediction-at-dispatch]][[weather][type-link][taf-predictions * taf-records]]][[weather][base-field][taf.header-text]]]
p1783
(dp1784
Vtype
p1785
Vstring
p1786
sg12
g13
sVid
p1787
g1783
sVname
p1788
VTakeoff Forecast at Dispatch: Header Text
p1789
ssV[-hub-][field][[[ems-core][entity-type][foqa-flights]][[[weather][type-link][flight-weather * alternate-prediction-at-landing]][[weather][type-link][taf-predictions * taf-records]]][[weather][base-field][taf.validity-stop]]]
p1790
(dp1791
Vtype
p1792
VdateTime
p1793
sg12
g13
sVid
p1794
g1790
sVname
p1795
VAlternate Forecast at Diversion: Valid Until
p1796
ssV[-hub-][field][[[ems-core][entity-type][foqa-flights]][[[nav][type-link][airport-takeoff * foqa-flights]]][[nav][base-field][nav-airport.longitude]]]
p1797
(dp1798
Vtype
p1799
Vnumber
p1800
sg12
g13
sVid
p1801
g1797
sVname
p1802
VTakeoff Airport Longitude
p1803
ssV[-hub-][field][[[ems-core][entity-type][foqa-flights]][[data-lake-export-status][base-field][data-lake-priority-bypass]]]
p1804
(dp1805
Vtype
p1806
Vboolean
p1807
sg12
g13
sVid
p1808
g1804
sVname
p1809
VData Lake Priority Bypass
p1810
ssV[-hub-][field][[[ems-core][entity-type][foqa-flights]][[ems-core][base-field][flight.runway-confidence-landing]]]
p1811
(dp1812
Vtype
p1813
Vnumber
p1814
sg12
g13
sVid
p1815
g1811
sVname
p1816
VLanding Runway Confidence
p1817
ssV[-hub-][field][[[ems-core][entity-type][foqa-flights]][[[nav][type-link][runway-takeoff * foqa-flights]]][[nav][base-field][nav-runway.heading-true]]]
p1818
(dp1819
Vtype
p1820
Vnumber
p1821
sg12
g13
sVid
p1822
g1818
sVname
p1823
VTakeoff Runway True Heading (deg)
p1824
ssV[-hub-][field][[[ems-core][entity-type][foqa-flights]][[[weather][type-link][flight-weather * landing-prediction-at-dispatch]]][[weather][base-field][prediction.visibility]]]
p1825
(dp1826
Vtype
p1827
Vnumber
p1828
sg12
g13
sVid
p1829
g1825
sVname
p1830
VPlanned Landing Forecast at Dispatch: Visibility (sm)
p1831
ssV[-hub-][field][[[ems-core][entity-type][foqa-flights]][[[nav][type-link][runway-landing * foqa-flights]]][[nav][base-field][nav-runway.elevation-end]]]
p1832
(dp1833
Vtype
p1834
Vnumber
p1835
sg12
g13
sVid
p1836
g1832
sVname
p1837
VLanding Runway Ending Elevation (ft)
p1838
ssV[-hub-][field][[[ems-core][entity-type][foqa-flights]][[[weather][type-link][flight-weather * alternate-prediction-at-landing]]][[weather][base-field][prediction.visibility]]]
p1839
(dp1840
Vtype
p1841
Vnumber
p1842
sg12
g13
sVid
p1843
g1839
sVname
p1844
VAlternate Forecast at Diversion: Visibility (sm)
p1845
ssV[-hub-][field][[[ems-core][entity-type][foqa-flights]][[[nav][type-link][airport-landing * foqa-flights]]][[nav][base-field][nav-airport.faa-code]]]
p1846
(dp1847
Vtype
p1848
Vstring
p1849
sg12
g13
sVid
p1850
g1846
sVname
p1851
VLanding Airport FAA / Regional Code
p1852
ssV[-hub-][field][[[ems-core][entity-type][foqa-flights]][[source-flight-info][base-field][from-source-ems]]]
p1853
(dp1854
Vtype
p1855
Vboolean
p1856
sg12
g13
sVid
p1857
g1853
sVname
p1858
VFrom Source EMS
p1859
ssV[-hub-][field][[[ems-core][entity-type][foqa-flights]][[source-flight-info][base-field][source-ems-installation]]]
p1860
(dp1861
Vtype
p1862
Vdiscrete
p1863
sg12
g13
sVid
p1864
g1860
sVname
p1865
VSource EMS Installation
p1866
ssV[-hub-][field][[[ems-core][entity-type][foqa-flights]][[[weather][type-link][flight-weather * landing-prediction-at-takeoff]]][[weather][base-field][prediction.start-time]]]
p1867
(dp1868
Vtype
p1869
VdateTime
p1870
sg12
g13
sVid
p1871
g1867
sVname
p1872
VPlanned Landing Forecast at Takeoff: Start Time
p1873
ssV[-hub-][field-group][[[ems-core][entity-type][foqa-flights]][[ems-core][internal-field-group][nav-info]]]
p1874
(dp1875
g12
g47
sVid
p1876
g1874
sVname
p1877
VNavigation Information
p1878
ssV[-hub-][field][[[ems-core][entity-type][foqa-flights]][[ems-core][base-field][flight.takeoff-runway-to-landing-runway]]]
p1879
(dp1880
Vtype
p1881
Vdiscrete
p1882
sg12
g13
sVid
p1883
g1879
sVname
p1884
VTakeoff Rwy -> Landing Rwy
p1885
ssV[-hub-][field][[[ems-core][entity-type][foqa-flights]][[airframe-engine-field-set][base-field][airframe]]]
p1886
(dp1887
Vtype
p1888
Vdiscrete
p1889
sg12
g13
sVid
p1890
g1886
sVname
p1891
VAirframe
p1892
ssV[-hub-][field][[[ems-core][entity-type][foqa-flights]][[ems-core][base-field][flight.weather-takeoff-exists]]]
p1893
(dp1894
Vtype
p1895
Vboolean
p1896
sg12
g13
sVid
p1897
g1893
sVname
p1898
VTakeoff Observation Present
p1899
ssV[-hub-][field][[[ems-core][entity-type][foqa-flights]][[airframe-engine-field-set][base-field][engine-manufacturer]]]
p1900
(dp1901
Vtype
p1902
Vdiscrete
p1903
sg12
g13
sVid
p1904
g1900
sVname
p1905
VEngine Manufacturer
p1906
ssV[-hub-][field][[[ems-core][entity-type][foqa-flights]][[[nav][type-link][airport-landing * foqa-flights]]][[nav][base-field][nav-airport.latitude]]]
p1907
(dp1908
Vtype
p1909
Vnumber
p1910
sg12
g13
sVid
p1911
g1907
sVname
p1912
VLanding Airport Latitude
p1913
ssV[-hub-][field][[[ems-core][entity-type][foqa-flights]][[duplicate-detection][base-field][automatic-detection]]]
p1914
(dp1915
Vtype
p1916
Vdiscrete
p1917
sg12
g13
sVid
p1918
g1914
sVname
p1919
VAutomatic Detection
p1920
ssV[-hub-][field][[[ems-core][entity-type][foqa-flights]][[crew-contact][base-field][recommendations]]]
p1921
(dp1922
Vtype
p1923
Vstring
p1924
sg12
g13
sVid
p1925
g1921
sVname
p1926
VRecommendations
p1927
ssV[-hub-][field][[[ems-core][entity-type][foqa-flights]][[[weather][type-link][flight-weather * landing-prediction-at-takeoff]]][[weather][base-field][prediction.raw-text]]]
p1928
(dp1929
Vtype
p1930
Vstring
p1931
sg12
g13
sVid
p1932
g1928
sVname
p1933
VPlanned Landing Forecast at Takeoff: Raw Text
p1934
ssV[-hub-][field][[[ems-core][entity-type][foqa-flights]][[crew-contact][base-field][why-did-the-event-occur-]]]
p1935
(dp1936
Vtype
p1937
Vstring
p1938
sg12
g13
sVid
p1939
g1935
sVname
p1940
VWhy Did the Event Occur?
p1941
ssV[-hub-][field][[[ems-core][entity-type][foqa-flights]][[[weather][type-link][foqa-flights * takeoff-weather]]][[weather][base-field][metar.dewpoint]]]
p1942
(dp1943
Vtype
p1944
Vnumber
p1945
sg12
g13
sVid
p1946
g1942
sVname
p1947
VTakeoff Dewpoint (deg C)
p1948
ssV[-hub-][field][[[ems-core][entity-type][foqa-flights]][[ems-core][base-field][flight.procedure-confidence-landing]]]
p1949
(dp1950
Vtype
p1951
Vnumber
p1952
sg12
g13
sVid
p1953
g1949
sVname
p1954
VArrival Confidence
p1955
ssV[-hub-][field][[[ems-core][entity-type][foqa-flights]][[[weather][type-link][flight-weather * alternate-prediction-at-dispatch]]][[weather][base-field][prediction.wind-speed]]]
p1956
(dp1957
Vtype
p1958
Vnumber
p1959
sg12
g13
sVid
p1960
g1956
sVname
p1961
VAlternate Forecast at Dispatch: Wind Speed (kts)
p1962
ssV[-hub-][field][[[ems-core][entity-type][foqa-flights]][[[weather][type-link][foqa-flights * takeoff-weather]]][[weather][base-field][metar.visibility]]]
p1963
(dp1964
Vtype
p1965
Vnumber
p1966
sg12
g13
sVid
p1967
g1963
sVname
p1968
VTakeoff Visibility (sm)
p1969
ssV[-hub-][field][[[ems-core][entity-type][foqa-flights]][[ems-core][base-field][flight.dafif-release]]]
p1970
(dp1971
Vtype
p1972
Vnumber
p1973
sg12
g13
sVid
p1974
g1970
sVname
p1975
VDafif Release ID
p1976
ssV[-hub-][field][[[ems-core][entity-type][foqa-flights]][[[nav][type-link][runway-landing * foqa-flights]]][[nav][base-field][nav-runway.latitude-end]]]
p1977
(dp1978
Vtype
p1979
Vnumber
p1980
sg12
g13
sVid
p1981
g1977
sVname
p1982
VLanding Runway Ending Latitude
p1983
ssV[-hub-][field][[[ems-core][entity-type][foqa-flights]][[data-quality][base-field][data-quality-comments]]]
p1984
(dp1985
Vtype
p1986
Vstring
p1987
sg12
g13
sVid
p1988
g1984
sVname
p1989
VData Quality Comments
p1990
ssV[-hub-][field][[[ems-core][entity-type][foqa-flights]][[ems-core][base-field][flight.uid]]]
p1991
(dp1992
Vtype
p1993
Vnumber
p1994
sg12
g13
sVid
p1995
g1991
sVname
p1996
VFlight Record
p1997
ssV[-hub-][field][[[ems-core][entity-type][foqa-flights]][[[nav][type-link][runway-landing * foqa-flights]]][[nav][base-field][nav-runway.mmark-longitude]]]
p1998
(dp1999
Vtype
p2000
Vnumber
p2001
sg12
g13
sVid
p2002
g1998
sVname
p2003
VLanding Middle Marker Longitude
p2004
ssV[-hub-][field][[[ems-core][entity-type][foqa-flights]][[[weather][type-link][flight-weather * takeoff-prediction-at-dispatch]]][[weather][base-field][prediction.visibility]]]
p2005
(dp2006
Vtype
p2007
Vnumber
p2008
sg12
g13
sVid
p2009
g2005
sVname
p2010
VTakeoff Forecast at Dispatch: Visibility (sm)
p2011
ssV[-hub-][field][[[ems-core][entity-type][foqa-flights]][[[weather][type-link][flight-weather * landing-prediction-at-dispatch]][[weather][type-link][taf-predictions * taf-records]]][[weather][base-field][taf.validity-start]]]
p2012
(dp2013
Vtype
p2014
VdateTime
p2015
sg12
g13
sVid
p2016
g2012
sVname
p2017
VPlanned Landing Forecast at Dispatch: Valid From
p2018
ssV[-hub-][field][[[ems-core][entity-type][foqa-flights]][[[weather][type-link][foqa-flights * takeoff-weather]]][[weather][base-field][metar.raw-text]]]
p2019
(dp2020
Vtype
p2021
Vstring
p2022
sg12
g13
sVid
p2023
g2019
sVname
p2024
VTakeoff Raw Text
p2025
ssV[-hub-][field][[[ems-core][entity-type][foqa-flights]][[ems-core][base-field][flight.airport-takeoff]]]
p2026
(dp2027
Vtype
p2028
Vdiscrete
p2029
sg12
g13
sVid
p2030
g2026
sVname
p2031
VTakeoff Airport Code
p2032
ssV[-hub-][field][[[ems-core][entity-type][foqa-flights]][[[nav][type-link][runway-landing * foqa-flights]]][[nav][base-field][nav-runway.parallel]]]
p2033
(dp2034
Vtype
p2035
Vboolean
p2036
sg12
g13
sVid
p2037
g2033
sVname
p2038
VLanding Is Parallel
p2039
ssV[-hub-][field][[[ems-core][entity-type][foqa-flights]][[[weather][type-link][foqa-flights * landing-weather]]][[weather][base-field][metar.is-parsed]]]
p2040
(dp2041
Vtype
p2042
Vboolean
p2043
sg12
g13
sVid
p2044
g2040
sVname
p2045
VLanding Parsed OK
p2046
ssV[-hub-][field][[[ems-core][entity-type][foqa-flights]][[[nav][type-link][runway-takeoff * foqa-flights]]][[nav][base-field][nav-runway.takeoff-dist]]]
p2047
(dp2048
Vtype
p2049
Vnumber
p2050
sg12
g13
sVid
p2051
g2047
sVname
p2052
VTakeoff Runway Takeoff Distance (ft)
p2053
ssV[-hub-][field][[[ems-core][entity-type][foqa-flights]][[[nav][type-link][runway-landing * foqa-flights]]][[nav][base-field][nav-runway.threshold-latitude]]]
p2054
(dp2055
Vtype
p2056
Vnumber
p2057
sg12
g13
sVid
p2058
g2054
sVname
p2059
VLanding Threshold Latitude
p2060
ssV[-hub-][field][[[ems-core][entity-type][foqa-flights]][[ems-core][base-field][flight.aircraft]]]
p2061
(dp2062
Vtype
p2063
Vdiscrete
p2064
sg12
g13
sVid
p2065
g2061
sVname
p2066
VTail Number
p2067
ssV[-hub-][field][[[ems-core][entity-type][foqa-flights]][[[weather][type-link][flight-weather * landing-prediction-at-takeoff]][[weather][type-link][taf-predictions * taf-records]]][[weather][base-field][taf.issue-time]]]
p2068
(dp2069
Vtype
p2070
VdateTime
p2071
sg12
g13
sVid
p2072
g2068
sVname
p2073
VPlanned Landing Forecast at Takeoff: Issued At
p2074
ssV[-hub-][field][[[ems-core][entity-type][foqa-flights]][[[weather][type-link][foqa-flights * landing-weather]]][[weather][base-field][metar.pressure]]]
p2075
(dp2076
Vtype
p2077
Vnumber
p2078
sg12
g13
sVid
p2079
g2075
sVname
p2080
VLanding Altimeter (in Hg)
p2081
ssV[-hub-][field][[[ems-core][entity-type][foqa-flights]][[airframe-engine-field-set][base-field][fleet-group]]]
p2082
(dp2083
Vtype
p2084
Vdiscrete
p2085
sg12
g13
sVid
p2086
g2082
sVname
p2087
VAirframe Group
p2088
ssV[-hub-][field][[[ems-core][entity-type][foqa-flights]][[[nav][type-link][airport-takeoff * foqa-flights]]][[nav][base-field][nav-airport.name]]]
p2089
(dp2090
Vtype
p2091
Vstring
p2092
sg12
g13
sVid
p2093
g2089
sVname
p2094
VTakeoff Airport Name
p2095
ssV[-hub-][field][[[ems-core][entity-type][foqa-flights]][[[nav][type-link][runway-landing * foqa-flights]]][[nav][base-field][nav-runway.loc-frequency]]]
p2096
(dp2097
Vtype
p2098
Vnumber
p2099
sg12
g13
sVid
p2100
g2096
sVname
p2101
VLanding Localizer Frequency (MHz)
p2102
ssV[-hub-][field][[[ems-core][entity-type][foqa-flights]][[[nav][type-link][runway-landing * foqa-flights]]][[nav][base-field][nav-runway.heading-true]]]
p2103
(dp2104
Vtype
p2105
Vnumber
p2106
sg12
g13
sVid
p2107
g2103
sVname
p2108
VLanding Runway True Heading (deg)
p2109
ssV[-hub-][field][[[ems-core][entity-type][foqa-flights]][[ems-core][base-field][flight.runway-landing-fdw]]]
p2110
(dp2111
Vtype
p2112
Vnumber
p2113
sg12
g13
sVid
p2114
g2110
sVname
p2115
VLanding Runway FDW ID Number
p2116
ssV[-hub-][field-group][[[ems-core][entity-type][foqa-flights]][[ems-apm][flight-group][profile-container:folder-ffffffff000000000000000000000000]]]
p2117
(dp2118
g12
g47
sVid
p2119
g2117
sVname
p2120
VProfiles
p2121
ssV[-hub-][field][[[ems-core][entity-type][foqa-flights]][[[nav][type-link][runway-takeoff * foqa-flights]][[nav][type-link][flight-runway * dme]]][[nav][base-field][nav-navaid.elevation]]]
p2122
(dp2123
Vtype
p2124
Vnumber
p2125
sg12
g13
sVid
p2126
g2122
sVname
p2127
VTakeoff DME Elevation (ft)
p2128
ssV[-hub-][field][[[ems-core][entity-type][foqa-flights]][[data-fusion][base-field][oooi-data-available]]]
p2129
(dp2130
Vtype
p2131
Vdiscrete
p2132
sg12
g13
sVid
p2133
g2129
sVname
p2134
VOOOI Data Available
p2135
ssV[-hub-][field][[[ems-core][entity-type][foqa-flights]][[[weather][type-link][flight-weather * landing-prediction-at-dispatch]][[weather][type-link][taf-predictions * taf-records]]][[weather][base-field][taf.import-id]]]
p2136
(dp2137
Vtype
p2138
Vnumber
p2139
sg12
g13
sVid
p2140
g2136
sVname
p2141
VPlanned Landing Forecast at Dispatch: Import ID
p2142
ssV[-hub-][field][[[ems-core][entity-type][foqa-flights]][[ems-core][base-field][flight.exact-date]]]
p2143
(dp2144
Vtype
p2145
VdateTime
p2146
sg12
g13
sVid
p2147
g2143
sVname
p2148
VFlight Date (Exact)
p2149
ssV[-hub-][field][[[ems-core][entity-type][foqa-flights]][[[weather][type-link][flight-weather * alternate-prediction-at-takeoff]][[weather][type-link][taf-predictions * taf-records]]][[weather][base-field][taf.import-id]]]
p2150
(dp2151
Vtype
p2152
Vnumber
p2153
sg12
g13
sVid
p2154
g2150
sVname
p2155
VAlternate Forecast at Takeoff: Import ID
p2156
ssV[-hub-][field][[[ems-core][entity-type][foqa-flights]][[ems-core][base-field][city-pair.pair]]]
p2157
(dp2158
Vtype
p2159
Vdiscrete
p2160
sg12
g13
sVid
p2161
g2157
sVname
p2162
VCity Pair
p2163
ssV[-hub-][field][[[ems-core][entity-type][foqa-flights]][[ems-core][base-field][flight.takeoff-runway-to-landing-airport]]]
p2164
(dp2165
Vtype
p2166
Vdiscrete
p2167
sg12
g13
sVid
p2168
g2164
sVname
p2169
VTakeoff Rwy -> Landing Arpt
p2170
ssV[-hub-][field-group][[[ems-core][entity-type][foqa-flights]][[ems-apm][flight-review-group][fields:folder-ffffffff000000000000000000000000]]]
p2171
(dp2172
g12
g47
sVid
p2173
g2171
sVname
p2174
VProfile Review
p2175
ssV[-hub-][field-group][[[ems-core][entity-type][foqa-flights]][[redaction-information][internal-field-group][redaction-information]]]
p2176
(dp2177
g12
g47
sVid
p2178
g2176
sVname
p2179
VRedaction Information
p2180
ssV[-hub-][field][[[ems-core][entity-type][foqa-flights]][[[nav][type-link][runway-landing * foqa-flights]]][[nav][base-field][nav-runway.mmark-latitude]]]
p2181
(dp2182
Vtype
p2183
Vnumber
p2184
sg12
g13
sVid
p2185
g2181
sVname
p2186
VLanding Middle Marker Latitude
p2187
ssV[-hub-][field][[[ems-core][entity-type][foqa-flights]][[[weather][type-link][flight-weather * takeoff-prediction-at-dispatch]]][[weather][base-field][prediction.ceiling]]]
p2188
(dp2189
Vtype
p2190
Vnumber
p2191
sg12
g13
sVid
p2192
g2188
sVname
p2193
VTakeoff Forecast at Dispatch: Ceiling (ft)
p2194
ssV[-hub-][field][[[ems-core][entity-type][foqa-flights]][[[weather][type-link][flight-weather * takeoff-prediction-at-dispatch]][[weather][type-link][taf-predictions * taf-records]]][[weather][base-field][taf.validity-stop]]]
p2195
(dp2196
Vtype
p2197
VdateTime
p2198
sg12
g13
sVid
p2199
g2195
sVname
p2200
VTakeoff Forecast at Dispatch: Valid Until
p2201
ssV[-hub-][field][[[ems-core][entity-type][foqa-flights]][[[weather][type-link][flight-weather * takeoff-prediction-at-dispatch]]][[weather][base-field][prediction.wind-speed]]]
p2202
(dp2203
Vtype
p2204
Vnumber
p2205
sg12
g13
sVid
p2206
g2202
sVname
p2207
VTakeoff Forecast at Dispatch: Wind Speed (kts)
p2208
ssV[-hub-][field][[[ems-core][entity-type][foqa-flights]][[ems-core][base-field][flight.exist-file]]]
p2209
(dp2210
Vtype
p2211
Vboolean
p2212
sg12
g13
sVid
p2213
g2209
sVname
p2214
VFlight Data Exists
p2215
ssV[-hub-][field][[[ems-core][entity-type][foqa-flights]][[ems-core][base-field][flight.percent-invalid]]]
p2216
(dp2217
Vtype
p2218
Vnumber
p2219
sg12
g13
sVid
p2220
g2216
sVname
p2221
VPercent Invalid
p2222
ssV[-hub-][field][[[ems-core][entity-type][foqa-flights]][[data-quality][base-field][data-quality-(master)]]]
p2223
(dp2224
Vtype
p2225
Vdiscrete
p2226
sg12
g13
sVid
p2227
g2223
sVname
p2228
VData Quality (master)
p2229
ssV[-hub-][field][[[ems-core][entity-type][foqa-flights]][[[weather][type-link][flight-weather * alternate-prediction-at-takeoff]][[weather][type-link][taf-predictions * taf-records]]][[weather][base-field][taf.header-text]]]
p2230
(dp2231
Vtype
p2232
Vstring
p2233
sg12
g13
sVid
p2234
g2230
sVname
p2235
VAlternate Forecast at Takeoff: Header Text
p2236
ssV[-hub-][field][[[ems-core][entity-type][foqa-flights]][[[weather][type-link][foqa-flights * takeoff-weather]]][[weather][base-field][metar.ceiling]]]
p2237
(dp2238
Vtype
p2239
Vnumber
p2240
sg12
g13
sVid
p2241
g2237
sVname
p2242
VTakeoff Ceiling (ft)
p2243
ssV[-hub-][field][[[ems-core][entity-type][foqa-flights]][[data-fusion][base-field][preferred-fuel-quantity-source]]]
p2244
(dp2245
Vtype
p2246
Vdiscrete
p2247
sg12
g13
sVid
p2248
g2244
sVname
p2249
VPreferred Fuel Quantity Source
p2250
ssV[-hub-][field][[[ems-core][entity-type][foqa-flights]][[[weather][type-link][flight-weather * alternate-prediction-at-dispatch]]][[weather][base-field][prediction.visibility]]]
p2251
(dp2252
Vtype
p2253
Vnumber
p2254
sg12
g13
sVid
p2255
g2251
sVname
p2256
VAlternate Forecast at Dispatch: Visibility (sm)
p2257
ssV[-hub-][field-group][[[ems-core][entity-type][foqa-flights]][[ems-core][internal-field-group][nav-info-takeoff-rwy]]]
p2258
(dp2259
g12
g47
sVid
p2260
g2258
sVname
p2261
VRunway
p2262
ssV[-hub-][field][[[ems-core][entity-type][foqa-flights]][[[weather][type-link][flight-weather * alternate-prediction-at-dispatch]][[weather][type-link][taf-predictions * taf-records]]][[weather][base-field][taf.validity-stop]]]
p2263
(dp2264
Vtype
p2265
VdateTime
p2266
sg12
g13
sVid
p2267
g2263
sVname
p2268
VAlternate Forecast at Dispatch: Valid Until
p2269
ssV[-hub-][field][[[ems-core][entity-type][foqa-flights]][[[weather][type-link][flight-weather * alternate-prediction-at-takeoff]][[weather][type-link][taf-predictions * taf-records]]][[weather][base-field][taf.validity-start]]]
p2270
(dp2271
Vtype
p2272
VdateTime
p2273
sg12
g13
sVid
p2274
g2270
sVname
p2275
VAlternate Forecast at Takeoff: Valid From
p2276
ssV[-hub-][field][[[ems-core][entity-type][foqa-flights]][[ems-core][base-field][flight.exact-nav-match]]]
p2277
(dp2278
Vtype
p2279
Vboolean
p2280
sg12
g13
sVid
p2281
g2277
sVname
p2282
VExact Nav Database Match
p2283
ssV[-hub-][field][[[ems-core][entity-type][foqa-flights]][[[nav][type-link][runway-landing * foqa-flights]]][[nav][base-field][nav-runway.width]]]
p2284
(dp2285
Vtype
p2286
Vnumber
p2287
sg12
g13
sVid
p2288
g2284
sVname
p2289
VLanding Runway Width (ft)
p2290
ssV[-hub-][field][[[ems-core][entity-type][foqa-flights]][[[nav][type-link][runway-takeoff * foqa-flights]]][[nav][base-field][nav-runway.latitude-end]]]
p2291
(dp2292
Vtype
p2293
Vnumber
p2294
sg12
g13
sVid
p2295
g2291
sVname
p2296
VTakeoff Runway Ending Latitude
p2297
ssV[-hub-][field][[[ems-core][entity-type][foqa-flights]][[[nav][type-link][airport-takeoff * foqa-flights]]][[nav][base-field][nav-airport.latitude]]]
p2298
(dp2299
Vtype
p2300
Vnumber
p2301
sg12
g13
sVid
p2302
g2298
sVname
p2303
VTakeoff Airport Latitude
p2304
ssV[-hub-][field][[[ems-core][entity-type][foqa-flights]][[[nav][type-link][runway-landing * foqa-flights]][[nav][type-link][flight-runway * dme]]][[nav][base-field][nav-navaid.elevation]]]
p2305
(dp2306
Vtype
p2307
Vnumber
p2308
sg12
g13
sVid
p2309
g2305
sVname
p2310
VLanding DME Elevation (ft)
p2311
ssV[-hub-][field][[[ems-core][entity-type][foqa-flights]][[ems-core][base-field][flight.runway-landing]]]
p2312
(dp2313
Vtype
p2314
Vdiscrete
p2315
sg12
g13
sVid
p2316
g2312
sVname
p2317
VLanding Runway ID
p2318
ssV[-hub-][field][[[ems-core][entity-type][foqa-flights]][[[nav][type-link][runway-landing * foqa-flights]]][[nav][base-field][nav-runway.ILSCategory]]]
p2319
(dp2320
Vtype
p2321
Vdiscrete
p2322
sg12
g13
sVid
p2323
g2319
sVname
p2324
VLanding ILS/MLS Category
p2325
ssV[-hub-][field][[[ems-core][entity-type][foqa-flights]][[[nav][type-link][runway-landing * foqa-flights]]][[nav][base-field][nav-runway.threshold-elevation]]]
p2326
(dp2327
Vtype
p2328
Vnumber
p2329
sg12
g13
sVid
p2330
g2326
sVname
p2331
VLanding Threshold Elevation (ft)
p2332
ssV[-hub-][field][[[ems-core][entity-type][foqa-flights]][[[nav][type-link][runway-landing * foqa-flights]]][[nav][base-field][nav-runway.thresh-cross-height]]]
p2333
(dp2334
Vtype
p2335
Vnumber
p2336
sg12
g13
sVid
p2337
g2333
sVname
p2338
VLanding Threshold Crossing Height (ft)
p2339
sssS'node_dict_factory'
p2340
c__builtin__
dict
p2341
sS'edge_attr_dict_factory'
p2342
g2341
sS'succ'
p2343
(dp2344
g8
(dp2345
sg17
(dp2346
sg24
(dp2347
sg31
(dp2348
sg38
(dp2349
sg45
(dp2350
g1269
(dp2351
sg2012
(dp2352
sg1241
(dp2353
sg535
(dp2354
sg1053
(dp2355
sg2136
(dp2356
sg1825
(dp2357
sg1561
(dp2358
sg1323
(dp2359
sg1403
(dp2360
sg610
(dp2361
sg1116
(dp2362
sg236
(dp2363
ssg51
(dp2364
sg58
(dp2365
sg65
(dp2366
sg72
(dp2367
sg79
(dp2368
sg86
(dp2369
sg93
(dp2370
sg100
(dp2371
sg107
(dp2372
sg114
(dp2373
sg121
(dp2374
sg128
(dp2375
sg135
(dp2376
sg142
(dp2377
sg149
(dp2378
sg156
(dp2379
sg163
(dp2380
sg170
(dp2381
g2019
(dp2382
sg93
(dp2383
sg368
(dp2384
sg507
(dp2385
sg1942
(dp2386
sg1734
(dp2387
sg2237
(dp2388
sg1222
(dp2389
sg86
(dp2390
sg1963
(dp2391
ssg175
(dp2392
sg182
(dp2393
sg189
(dp2394
g1304
(dp2395
sg893
(dp2396
sg107
(dp2397
sg770
(dp2398
sg163
(dp2399
sg2230
(dp2400
sg1046
(dp2401
sg1603
(dp2402
sg2150
(dp2403
sg700
(dp2404
sg921
(dp2405
sg1255
(dp2406
sg2270
(dp2407
ssg194
(dp2408
sg201
(dp2409
sg208
(dp2410
sg215
(dp2411
sg222
(dp2412
sg229
(dp2413
sg236
(dp2414
sg243
(dp2415
g1170
(dp2416
sg1067
(dp2417
sg763
(dp2418
sg441
(dp2419
sg1921
(dp2420
sg992
(dp2421
sg1935
(dp2422
sg547
(dp2423
sg288
(dp2424
sg72
(dp2425
sg51
(dp2426
sg568
(dp2427
sg1248
(dp2428
ssg248
(dp2429
sg255
(dp2430
sg262
(dp2431
g1727
(dp2432
sg1088
(dp2433
sg1074
(dp2434
sg961
(dp2435
sg2122
(dp2436
sg1396
(dp2437
sg728
(dp2438
sg333
(dp2439
sg798
(dp2440
ssg267
(dp2441
sg274
(dp2442
sg281
(dp2443
sg288
(dp2444
sg295
(dp2445
sg302
(dp2446
g1375
(dp2447
sg669
(dp2448
sg999
(dp2449
sg949
(dp2450
sg2026
(dp2451
sg824
(dp2452
sg128
(dp2453
sg641
(dp2454
sg1208
(dp2455
sg1215
(dp2456
sg1797
(dp2457
sg2089
(dp2458
sg2298
(dp2459
ssg307
(dp2460
sg314
(dp2461
g2216
(dp2462
sg648
(dp2463
sg1893
(dp2464
sg1311
(dp2465
sg662
(dp2466
sg208
(dp2467
sg681
(dp2468
sg2176
(dp2469
sg1432
(dp2470
sg1556
(dp2471
sg1692
(dp2472
sg347
(dp2473
sg495
(dp2474
sg2209
(dp2475
ssg319
(dp2476
sg326
(dp2477
sg333
(dp2478
sg340
(dp2479
sg347
(dp2480
sg354
(dp2481
sg361
(dp2482
sg368
(dp2483
sg375
(dp2484
g707
(dp2485
sg380
(dp2486
sg1276
(dp2487
sg942
(dp2488
sg361
(dp2489
sg408
(dp2490
sg1382
(dp2491
sg1928
(dp2492
sg229
(dp2493
sg1460
(dp2494
sg79
(dp2495
sg2068
(dp2496
sg1867
(dp2497
ssg380
(dp2498
sg387
(dp2499
sg394
(dp2500
sg401
(dp2501
sg408
(dp2502
sg415
(dp2503
sg422
(dp2504
g812
(dp2505
sg1521
(dp2506
sg2244
(dp2507
sg935
(dp2508
sg1720
(dp2509
sg114
(dp2510
sg387
(dp2511
sg2129
(dp2512
sg394
(dp2513
sg1156
(dp2514
sg1657
(dp2515
sg156
(dp2516
sg1535
(dp2517
ssg427
(dp2518
sg434
(dp2519
sg441
(dp2520
sg448
(dp2521
sg455
(dp2522
sg462
(dp2523
sg469
(dp2524
sg476
(dp2525
sg483
(dp2526
sg490
(dp2527
g676
(dp2528
sg980
(dp2529
ssg495
(dp2530
sg502
(dp2531
g1914
(dp2532
sg274
(dp2533
sg1032
(dp2534
sg1368
(dp2535
sg843
(dp2536
sg1755
(dp2537
sg582
(dp2538
ssg507
(dp2539
sg514
(dp2540
sg521
(dp2541
sg528
(dp2542
sg535
(dp2543
sg542
(dp2544
sg547
(dp2545
sg554
(dp2546
sg561
(dp2547
sg568
(dp2548
sg575
(dp2549
sg582
(dp2550
sg589
(dp2551
sg596
(dp2552
sg603
(dp2553
sg610
(dp2554
sg617
(dp2555
g2258
(dp2556
sg850
(dp2557
sg302
(dp2558
ssg622
(dp2559
sg629
(dp2560
sg636
(dp2561
g2047
(dp2562
sg1081
(dp2563
sg38
(dp2564
sg1671
(dp2565
sg791
(dp2566
sg1818
(dp2567
sg1643
(dp2568
sg319
(dp2569
sg135
(dp2570
sg1189
(dp2571
sg182
(dp2572
sg2291
(dp2573
sg469
(dp2574
sg307
(dp2575
ssg641
(dp2576
sg648
(dp2577
sg655
(dp2578
sg662
(dp2579
sg669
(dp2580
sg676
(dp2581
g170
(dp2582
sg956
(dp2583
ssg681
(dp2584
sg688
(dp2585
g2110
(dp2586
sg1811
(dp2587
sg2033
(dp2588
sg2312
(dp2589
ssg693
(dp2590
sg700
(dp2591
sg707
(dp2592
sg714
(dp2593
sg721
(dp2594
sg728
(dp2595
sg735
(dp2596
sg742
(dp2597
sg749
(dp2598
sg756
(dp2599
sg763
(dp2600
sg770
(dp2601
sg777
(dp2602
sg784
(dp2603
sg791
(dp2604
sg798
(dp2605
sg805
(dp2606
sg812
(dp2607
sg819
(dp2608
sg824
(dp2609
sg831
(dp2610
g1949
(dp2611
sg1349
(dp2612
sg1018
(dp2613
ssg836
(dp2614
sg843
(dp2615
sg850
(dp2616
g622
(dp2617
sg1039
(dp2618
sg714
(dp2619
ssg855
(dp2620
g243
(dp2621
sg1415
(dp2622
sg2171
(dp2623
sg422
(dp2624
sg502
(dp2625
ssg860
(dp2626
sg867
(dp2627
sg874
(dp2628
sg881
(dp2629
sg888
(dp2630
g756
(dp2631
sg401
(dp2632
sg985
(dp2633
sg448
(dp2634
sg1420
(dp2635
sg8
(dp2636
sg17
(dp2637
sg1201
(dp2638
sg1102
(dp2639
sg1509
(dp2640
sg1790
(dp2641
sg1839
(dp2642
sg1762
(dp2643
ssg893
(dp2644
sg900
(dp2645
sg907
(dp2646
sg914
(dp2647
sg921
(dp2648
sg928
(dp2649
sg935
(dp2650
sg942
(dp2651
sg949
(dp2652
sg956
(dp2653
g326
(dp2654
sg149
(dp2655
sg31
(dp2656
sg1589
(dp2657
sg1636
(dp2658
sg1502
(dp2659
sg1453
(dp2660
sg1095
(dp2661
sg2040
(dp2662
sg2075
(dp2663
ssg961
(dp2664
sg968
(dp2665
g1596
(dp2666
sg354
(dp2667
ssg973
(dp2668
sg980
(dp2669
g888
(dp2670
sg45
(dp2671
sg1481
(dp2672
sg375
(dp2673
sg1318
(dp2674
sg189
(dp2675
ssg985
(dp2676
sg992
(dp2677
sg999
(dp2678
sg1006
(dp2679
sg1013
(dp2680
g1439
(dp2681
sg836
(dp2682
sg1177
(dp2683
sg907
(dp2684
sg1991
(dp2685
sg542
(dp2686
sg2143
(dp2687
sg1685
(dp2688
sg427
(dp2689
sg575
(dp2690
sg1297
(dp2691
ssg1018
(dp2692
sg1025
(dp2693
sg1032
(dp2694
sg1039
(dp2695
sg1046
(dp2696
sg1053
(dp2697
sg1060
(dp2698
sg1067
(dp2699
sg1074
(dp2700
sg1081
(dp2701
sg1088
(dp2702
sg1095
(dp2703
sg1102
(dp2704
sg1109
(dp2705
sg1116
(dp2706
sg1123
(dp2707
sg1130
(dp2708
sg1135
(dp2709
sg1142
(dp2710
sg1149
(dp2711
sg1156
(dp2712
sg1163
(dp2713
sg1170
(dp2714
sg1177
(dp2715
g1337
(dp2716
sg462
(dp2717
sg1060
(dp2718
sg1748
(dp2719
sg1853
(dp2720
sg1860
(dp2721
ssg1182
(dp2722
sg1189
(dp2723
sg1196
(dp2724
g1025
(dp2725
sg2082
(dp2726
sg528
(dp2727
sg655
(dp2728
sg1886
(dp2729
sg2061
(dp2730
sg867
(dp2731
sg749
(dp2732
sg603
(dp2733
sg784
(dp2734
sg968
(dp2735
sg415
(dp2736
sg1330
(dp2737
sg1900
(dp2738
sg24
(dp2739
ssg1201
(dp2740
sg1208
(dp2741
sg1215
(dp2742
sg1222
(dp2743
sg1229
(dp2744
sg1236
(dp2745
g1907
(dp2746
sg483
(dp2747
sg215
(dp2748
sg222
(dp2749
sg281
(dp2750
sg1776
(dp2751
sg596
(dp2752
sg142
(dp2753
sg554
(dp2754
sg340
(dp2755
sg1467
(dp2756
sg1846
(dp2757
sg874
(dp2758
ssg1241
(dp2759
sg1248
(dp2760
sg1255
(dp2761
sg1262
(dp2762
sg1269
(dp2763
sg1276
(dp2764
sg1283
(dp2765
sg1290
(dp2766
sg1297
(dp2767
sg1304
(dp2768
sg1311
(dp2769
sg1318
(dp2770
g1769
(dp2771
sg881
(dp2772
sg255
(dp2773
sg629
(dp2774
sg2251
(dp2775
sg1650
(dp2776
sg295
(dp2777
sg1182
(dp2778
sg58
(dp2779
sg1956
(dp2780
sg514
(dp2781
sg2263
(dp2782
sg1474
(dp2783
ssg1323
(dp2784
sg1330
(dp2785
sg1337
(dp2786
sg1344
(dp2787
g1516
(dp2788
sg688
(dp2789
sg1427
(dp2790
ssg1349
(dp2791
sg1356
(dp2792
g1344
(dp2793
sg1236
(dp2794
sg831
(dp2795
ssg1361
(dp2796
sg1368
(dp2797
sg1375
(dp2798
sg1382
(dp2799
sg1389
(dp2800
sg1396
(dp2801
sg1403
(dp2802
sg1410
(dp2803
sg1415
(dp2804
g2223
(dp2805
sg1582
(dp2806
sg175
(dp2807
sg1678
(dp2808
sg860
(dp2809
sg1984
(dp2810
ssg1420
(dp2811
sg1427
(dp2812
g521
(dp2813
sg2326
(dp2814
sg1446
(dp2815
sg1142
(dp2816
sg2284
(dp2817
sg721
(dp2818
sg1977
(dp2819
sg1832
(dp2820
sg2054
(dp2821
sg1389
(dp2822
sg928
(dp2823
sg2103
(dp2824
sg1549
(dp2825
sg1123
(dp2826
sg1290
(dp2827
sg100
(dp2828
sg735
(dp2829
sg2333
(dp2830
sg1699
(dp2831
sg1262
(dp2832
ssg1432
(dp2833
sg1439
(dp2834
sg1446
(dp2835
sg1453
(dp2836
sg1460
(dp2837
sg1467
(dp2838
sg1474
(dp2839
sg1481
(dp2840
g201
(dp2841
sg1713
(dp2842
sg1229
(dp2843
sg777
(dp2844
sg1283
(dp2845
sg1783
(dp2846
sg2188
(dp2847
sg2195
(dp2848
sg2202
(dp2849
sg742
(dp2850
sg693
(dp2851
sg2005
(dp2852
sg1163
(dp2853
ssg1486
(dp2854
sg1493
(dp2855
g1196
(dp2856
sg1013
(dp2857
sg490
(dp2858
sg1874
(dp2859
sg855
(dp2860
sg2117
(dp2861
sg314
(dp2862
sg819
(dp2863
sg1130
(dp2864
sg1410
(dp2865
ssg1502
(dp2866
sg1509
(dp2867
sg1516
(dp2868
g1135
(dp2869
sg1006
(dp2870
sg1741
(dp2871
sg1568
(dp2872
sg248
(dp2873
sg267
(dp2874
sg121
(dp2875
sg1486
(dp2876
sg2096
(dp2877
sg1610
(dp2878
sg1617
(dp2879
sg973
(dp2880
sg1629
(dp2881
sg1998
(dp2882
sg1361
(dp2883
sg2305
(dp2884
sg1664
(dp2885
sg65
(dp2886
sg455
(dp2887
sg2319
(dp2888
sg2181
(dp2889
sg476
(dp2890
sg194
(dp2891
sg1542
(dp2892
sg805
(dp2893
ssg1521
(dp2894
sg1528
(dp2895
sg1535
(dp2896
sg1542
(dp2897
sg1549
(dp2898
sg1556
(dp2899
g1804
(dp2900
sg1149
(dp2901
sg900
(dp2902
ssg1561
(dp2903
sg1568
(dp2904
sg1575
(dp2905
sg1582
(dp2906
sg1589
(dp2907
sg1596
(dp2908
sg1603
(dp2909
sg1610
(dp2910
sg1617
(dp2911
sg1624
(dp2912
g1575
(dp2913
sg1109
(dp2914
sg589
(dp2915
sg914
(dp2916
ssg1629
(dp2917
sg1636
(dp2918
sg1643
(dp2919
sg1650
(dp2920
sg1657
(dp2921
sg1664
(dp2922
sg1671
(dp2923
sg1678
(dp2924
sg1685
(dp2925
sg1692
(dp2926
sg1699
(dp2927
sg1706
(dp2928
sg1713
(dp2929
sg1720
(dp2930
sg1727
(dp2931
sg1734
(dp2932
sg1741
(dp2933
sg1748
(dp2934
sg1755
(dp2935
sg1762
(dp2936
sg1769
(dp2937
sg1776
(dp2938
sg1783
(dp2939
sg1790
(dp2940
sg1797
(dp2941
sg1804
(dp2942
sg1811
(dp2943
sg1818
(dp2944
sg1825
(dp2945
sg1832
(dp2946
sg1839
(dp2947
sg1846
(dp2948
sg1853
(dp2949
sg1860
(dp2950
sg1867
(dp2951
sg1874
(dp2952
g2277
(dp2953
sg1970
(dp2954
sg2164
(dp2955
sg617
(dp2956
sg1879
(dp2957
sg1356
(dp2958
sg561
(dp2959
sg2157
(dp2960
ssg1879
(dp2961
sg1886
(dp2962
sg1893
(dp2963
sg1900
(dp2964
sg1907
(dp2965
sg1914
(dp2966
sg1921
(dp2967
sg1928
(dp2968
sg1935
(dp2969
sg1942
(dp2970
sg1949
(dp2971
sg1956
(dp2972
sg1963
(dp2973
sg1970
(dp2974
sg1977
(dp2975
sg1984
(dp2976
sg1991
(dp2977
sg1998
(dp2978
sg2005
(dp2979
sg2012
(dp2980
sg2019
(dp2981
sg2026
(dp2982
sg2033
(dp2983
sg2040
(dp2984
sg2047
(dp2985
sg2054
(dp2986
sg2061
(dp2987
sg2068
(dp2988
sg2075
(dp2989
sg2082
(dp2990
sg2089
(dp2991
sg2096
(dp2992
sg2103
(dp2993
sg2110
(dp2994
sg2117
(dp2995
sg2122
(dp2996
sg2129
(dp2997
sg2136
(dp2998
sg2143
(dp2999
sg2150
(dp3000
sg2157
(dp3001
sg2164
(dp3002
sg2171
(dp3003
sg2176
(dp3004
g1528
(dp3005
sg434
(dp3006
sg1706
(dp3007
ssg2181
(dp3008
sg2188
(dp3009
sg2195
(dp3010
sg2202
(dp3011
sg2209
(dp3012
sg2216
(dp3013
sg2223
(dp3014
sg2230
(dp3015
sg2237
(dp3016
sg2244
(dp3017
sg2251
(dp3018
sg2258
(dp3019
g262
(dp3020
sg1624
(dp3021
sg636
(dp3022
ssg2263
(dp3023
sg2270
(dp3024
sg2277
(dp3025
sg2284
(dp3026
sg2291
(dp3027
sg2298
(dp3028
sg2305
(dp3029
sg2312
(dp3030
sg2319
(dp3031
sg2326
(dp3032
sg2333
(dp3033
ssS'edge'
p3034
g2344
sS'graph'
p3035
(dp3036
sS'adjlist_dict_factory'
p3037
g2341
sS'adj'
p3038
g2344
sS'pred'
p3039
(dp3040
g8
(dp3041
g888
g2636
ssg17
(dp3042
g888
g2637
ssg24
(dp3043
g1196
g2739
ssg31
(dp3044
g956
g2656
ssg38
(dp3045
g636
g2564
ssg45
(dp3046
g980
g2671
ssg51
(dp3047
g243
g2426
ssg58
(dp3048
g1318
g2779
ssg65
(dp3049
g1516
g2886
ssg72
(dp3050
g243
g2425
ssg79
(dp3051
g375
g2495
ssg86
(dp3052
g170
g2390
ssg93
(dp3053
g170
g2383
ssg100
(dp3054
g1427
g2828
ssg107
(dp3055
g189
g2397
ssg114
(dp3056
g422
g2510
ssg121
(dp3057
g1516
g2875
ssg128
(dp3058
g302
g2453
ssg135
(dp3059
g636
g2570
ssg142
(dp3060
g1236
g2753
ssg149
(dp3061
g956
g2655
ssg156
(dp3062
g422
g2516
ssg163
(dp3063
g189
g2399
ssg170
(dp3064
g676
g2582
ssg175
(dp3065
g1415
g2807
ssg182
(dp3066
g636
g2572
ssg189
(dp3067
g980
g2675
ssg194
(dp3068
g1516
g2891
ssg201
(dp3069
g1481
g2841
ssg208
(dp3070
g314
g2467
ssg215
(dp3071
g1236
g2748
ssg222
(dp3072
g1236
g2749
ssg229
(dp3073
g375
g2493
ssg236
(dp3074
g45
g2363
ssg243
(dp3075
g855
g2621
ssg248
(dp3076
g1516
g2873
ssg255
(dp3077
g1318
g2773
ssg262
(dp3078
g2258
g3020
ssg267
(dp3079
g1516
g2874
ssg274
(dp3080
g502
g2533
ssg281
(dp3081
g1236
g2750
ssg288
(dp3082
g243
g2424
ssg295
(dp3083
g1318
g2777
ssg302
(dp3084
g617
g2558
ssg307
(dp3085
g636
g2575
ssg314
(dp3086
g1493
g2862
ssg319
(dp3087
g636
g2569
ssg326
(dp3088
g956
g2654
ssg333
(dp3089
g262
g2439
ssg340
(dp3090
g1236
g2755
ssg347
(dp3091
g314
g2473
ssg354
(dp3092
g968
g2667
ssg361
(dp3093
g375
g2489
ssg368
(dp3094
g170
g2384
ssg375
(dp3095
g980
g2673
ssg380
(dp3096
g375
g2486
ssg387
(dp3097
g422
g2511
ssg394
(dp3098
g422
g2513
ssg401
(dp3099
g888
g2632
ssg408
(dp3100
g375
g2490
ssg415
(dp3101
g1196
g2736
ssg422
(dp3102
g855
g2624
ssg427
(dp3103
g1013
g2689
ssg434
(dp3104
g2176
g3006
ssg441
(dp3105
g243
g2419
ssg448
(dp3106
g888
g2634
ssg455
(dp3107
g1516
g2887
ssg462
(dp3108
g1177
g2717
ssg469
(dp3109
g636
g2574
ssg476
(dp3110
g1516
g2890
ssg483
(dp3111
g1236
g2747
ssg490
(dp3112
g1493
g2858
ssg495
(dp3113
g314
g2474
ssg502
(dp3114
g855
g2625
ssg507
(dp3115
g170
g2385
ssg514
(dp3116
g1318
g2781
ssg521
(dp3117
g1427
g2813
ssg528
(dp3118
g1196
g2727
ssg535
(dp3119
g45
g2354
ssg542
(dp3120
g1013
g2686
ssg547
(dp3121
g243
g2423
ssg554
(dp3122
g1236
g2754
ssg561
(dp3123
g1874
g2959
ssg568
(dp3124
g243
g2427
ssg575
(dp3125
g1013
g2690
ssg582
(dp3126
g502
g2538
ssg589
(dp3127
g1624
g2915
ssg596
(dp3128
g1236
g2752
ssg603
(dp3129
g1196
g2733
ssg610
(dp3130
g45
g2361
ssg617
(dp3131
g1874
g2956
ssg622
(dp3132
g850
g2617
ssg629
(dp3133
g1318
g2774
ssg636
(dp3134
g2258
g3022
ssg641
(dp3135
g302
g2454
ssg648
(dp3136
g314
g2463
ssg655
(dp3137
g1196
g2728
ssg662
(dp3138
g314
g2466
ssg669
(dp3139
g302
g2448
ssg676
(dp3140
g490
g2528
ssg681
(dp3141
g314
g2468
ssg688
(dp3142
g1344
g2789
ssg693
(dp3143
g1481
g2851
ssg700
(dp3144
g189
g2404
ssg707
(dp3145
g375
g2485
ssg714
(dp3146
g850
g2619
ssg721
(dp3147
g1427
g2818
ssg728
(dp3148
g262
g2438
ssg735
(dp3149
g1427
g2829
ssg742
(dp3150
g1481
g2850
ssg749
(dp3151
g1196
g2732
ssg756
(dp3152
g888
g2631
ssg763
(dp3153
g243
g2418
ssg770
(dp3154
g189
g2398
ssg777
(dp3155
g1481
g2844
ssg784
(dp3156
g1196
g2734
ssg791
(dp3157
g636
g2566
ssg798
(dp3158
g262
g2440
ssg805
(dp3159
g1516
g2893
ssg812
(dp3160
g422
g2505
ssg819
(dp3161
g1493
g2863
ssg824
(dp3162
g302
g2452
ssg831
(dp3163
g1356
g2795
ssg836
(dp3164
g1013
g2682
ssg843
(dp3165
g502
g2536
ssg850
(dp3166
g617
g2557
ssg855
(dp3167
g1493
g2860
ssg860
(dp3168
g1415
g2809
ssg867
(dp3169
g1196
g2731
ssg874
(dp3170
g1236
g2758
ssg881
(dp3171
g1318
g2772
ssg888
(dp3172
g980
g2670
ssg893
(dp3173
g189
g2396
ssg900
(dp3174
g1556
g2902
ssg907
(dp3175
g1013
g2684
ssg914
(dp3176
g1624
g2916
ssg921
(dp3177
g189
g2405
ssg928
(dp3178
g1427
g2823
ssg935
(dp3179
g422
g2508
ssg942
(dp3180
g375
g2488
ssg949
(dp3181
g302
g2450
ssg956
(dp3182
g676
g2583
ssg961
(dp3183
g262
g2435
ssg968
(dp3184
g1196
g2735
ssg973
(dp3185
g1516
g2880
ssg980
(dp3186
g490
g2529
ssg985
(dp3187
g888
g2633
ssg992
(dp3188
g243
g2421
ssg999
(dp3189
g302
g2449
ssg1006
(dp3190
g1516
g2870
ssg1013
(dp3191
g1493
g2857
ssg1018
(dp3192
g831
g2613
ssg1025
(dp3193
g1196
g2725
ssg1032
(dp3194
g502
g2534
ssg1039
(dp3195
g850
g2618
ssg1046
(dp3196
g189
g2401
ssg1053
(dp3197
g45
g2355
ssg1060
(dp3198
g1177
g2718
ssg1067
(dp3199
g243
g2417
ssg1074
(dp3200
g262
g2434
ssg1081
(dp3201
g636
g2563
ssg1088
(dp3202
g262
g2433
ssg1095
(dp3203
g956
g2661
ssg1102
(dp3204
g888
g2639
ssg1109
(dp3205
g1624
g2914
ssg1116
(dp3206
g45
g2362
ssg1123
(dp3207
g1427
g2826
ssg1130
(dp3208
g1493
g2864
ssg1135
(dp3209
g1516
g2869
ssg1142
(dp3210
g1427
g2816
ssg1149
(dp3211
g1556
g2901
ssg1156
(dp3212
g422
g2514
ssg1163
(dp3213
g1481
g2853
ssg1170
(dp3214
g243
g2416
ssg1177
(dp3215
g1013
g2683
ssg1182
(dp3216
g1318
g2778
ssg1189
(dp3217
g636
g2571
ssg1196
(dp3218
g1493
g2856
ssg1201
(dp3219
g888
g2638
ssg1208
(dp3220
g302
g2455
ssg1215
(dp3221
g302
g2456
ssg1222
(dp3222
g170
g2389
ssg1229
(dp3223
g1481
g2843
ssg1236
(dp3224
g1356
g2794
ssg1241
(dp3225
g45
g2353
ssg1248
(dp3226
g243
g2428
ssg1255
(dp3227
g189
g2406
ssg1262
(dp3228
g1427
g2832
ssg1269
(dp3229
g45
g2351
ssg1276
(dp3230
g375
g2487
ssg1283
(dp3231
g1481
g2845
ssg1290
(dp3232
g1427
g2827
ssg1297
(dp3233
g1013
g2691
ssg1304
(dp3234
g189
g2395
ssg1311
(dp3235
g314
g2465
ssg1318
(dp3236
g980
g2674
ssg1323
(dp3237
g45
g2359
ssg1330
(dp3238
g1196
g2737
ssg1337
(dp3239
g1177
g2716
ssg1344
(dp3240
g1356
g2793
ssg1349
(dp3241
g831
g2612
ssg1356
(dp3242
g1874
g2958
ssg1361
(dp3243
g1516
g2883
ssg1368
(dp3244
g502
g2535
ssg1375
(dp3245
g302
g2447
ssg1382
(dp3246
g375
g2491
ssg1389
(dp3247
g1427
g2822
ssg1396
(dp3248
g262
g2437
ssg1403
(dp3249
g45
g2360
ssg1410
(dp3250
g1493
g2865
ssg1415
(dp3251
g855
g2622
ssg1420
(dp3252
g888
g2635
ssg1427
(dp3253
g1344
g2790
ssg1432
(dp3254
g314
g2470
ssg1439
(dp3255
g1013
g2681
ssg1446
(dp3256
g1427
g2815
ssg1453
(dp3257
g956
g2660
ssg1460
(dp3258
g375
g2494
ssg1467
(dp3259
g1236
g2756
ssg1474
(dp3260
g1318
g2783
ssg1481
(dp3261
g980
g2672
ssg1486
(dp3262
g1516
g2876
ssg1493
(dp3263
sg1502
(dp3264
g956
g2659
ssg1509
(dp3265
g888
g2640
ssg1516
(dp3266
g1344
g2788
ssg1521
(dp3267
g422
g2506
ssg1528
(dp3268
g2176
g3005
ssg1535
(dp3269
g422
g2517
ssg1542
(dp3270
g1516
g2892
ssg1549
(dp3271
g1427
g2825
ssg1556
(dp3272
g314
g2471
ssg1561
(dp3273
g45
g2358
ssg1568
(dp3274
g1516
g2872
ssg1575
(dp3275
g1624
g2913
ssg1582
(dp3276
g1415
g2806
ssg1589
(dp3277
g956
g2657
ssg1596
(dp3278
g968
g2666
ssg1603
(dp3279
g189
g2402
ssg1610
(dp3280
g1516
g2878
ssg1617
(dp3281
g1516
g2879
ssg1624
(dp3282
g2258
g3021
ssg1629
(dp3283
g1516
g2881
ssg1636
(dp3284
g956
g2658
ssg1643
(dp3285
g636
g2568
ssg1650
(dp3286
g1318
g2776
ssg1657
(dp3287
g422
g2515
ssg1664
(dp3288
g1516
g2885
ssg1671
(dp3289
g636
g2565
ssg1678
(dp3290
g1415
g2808
ssg1685
(dp3291
g1013
g2688
ssg1692
(dp3292
g314
g2472
ssg1699
(dp3293
g1427
g2831
ssg1706
(dp3294
g2176
g3007
ssg1713
(dp3295
g1481
g2842
ssg1720
(dp3296
g422
g2509
ssg1727
(dp3297
g262
g2432
ssg1734
(dp3298
g170
g2387
ssg1741
(dp3299
g1516
g2871
ssg1748
(dp3300
g1177
g2719
ssg1755
(dp3301
g502
g2537
ssg1762
(dp3302
g888
g2643
ssg1769
(dp3303
g1318
g2771
ssg1776
(dp3304
g1236
g2751
ssg1783
(dp3305
g1481
g2846
ssg1790
(dp3306
g888
g2641
ssg1797
(dp3307
g302
g2457
ssg1804
(dp3308
g1556
g2900
ssg1811
(dp3309
g688
g2587
ssg1818
(dp3310
g636
g2567
ssg1825
(dp3311
g45
g2357
ssg1832
(dp3312
g1427
g2820
ssg1839
(dp3313
g888
g2642
ssg1846
(dp3314
g1236
g2757
ssg1853
(dp3315
g1177
g2720
ssg1860
(dp3316
g1177
g2721
ssg1867
(dp3317
g375
g2497
ssg1874
(dp3318
g1493
g2859
ssg1879
(dp3319
g1874
g2957
ssg1886
(dp3320
g1196
g2729
ssg1893
(dp3321
g314
g2464
ssg1900
(dp3322
g1196
g2738
ssg1907
(dp3323
g1236
g2746
ssg1914
(dp3324
g502
g2532
ssg1921
(dp3325
g243
g2420
ssg1928
(dp3326
g375
g2492
ssg1935
(dp3327
g243
g2422
ssg1942
(dp3328
g170
g2386
ssg1949
(dp3329
g831
g2611
ssg1956
(dp3330
g1318
g2780
ssg1963
(dp3331
g170
g2391
ssg1970
(dp3332
g1874
g2954
ssg1977
(dp3333
g1427
g2819
ssg1984
(dp3334
g1415
g2810
ssg1991
(dp3335
g1013
g2685
ssg1998
(dp3336
g1516
g2882
ssg2005
(dp3337
g1481
g2852
ssg2012
(dp3338
g45
g2352
ssg2019
(dp3339
g170
g2382
ssg2026
(dp3340
g302
g2451
ssg2033
(dp3341
g688
g2588
ssg2040
(dp3342
g956
g2662
ssg2047
(dp3343
g636
g2562
ssg2054
(dp3344
g1427
g2821
ssg2061
(dp3345
g1196
g2730
ssg2068
(dp3346
g375
g2496
ssg2075
(dp3347
g956
g2663
ssg2082
(dp3348
g1196
g2726
ssg2089
(dp3349
g302
g2458
ssg2096
(dp3350
g1516
g2877
ssg2103
(dp3351
g1427
g2824
ssg2110
(dp3352
g688
g2586
ssg2117
(dp3353
g1493
g2861
ssg2122
(dp3354
g262
g2436
ssg2129
(dp3355
g422
g2512
ssg2136
(dp3356
g45
g2356
ssg2143
(dp3357
g1013
g2687
ssg2150
(dp3358
g189
g2403
ssg2157
(dp3359
g1874
g2960
ssg2164
(dp3360
g1874
g2955
ssg2171
(dp3361
g855
g2623
ssg2176
(dp3362
g314
g2469
ssg2181
(dp3363
g1516
g2889
ssg2188
(dp3364
g1481
g2847
ssg2195
(dp3365
g1481
g2848
ssg2202
(dp3366
g1481
g2849
ssg2209
(dp3367
g314
g2475
ssg2216
(dp3368
g314
g2462
ssg2223
(dp3369
g1415
g2805
ssg2230
(dp3370
g189
g2400
ssg2237
(dp3371
g170
g2388
ssg2244
(dp3372
g422
g2507
ssg2251
(dp3373
g1318
g2775
ssg2258
(dp3374
g617
g2556
ssg2263
(dp3375
g1318
g2782
ssg2270
(dp3376
g189
g2407
ssg2277
(dp3377
g1874
g2953
ssg2284
(dp3378
g1427
g2817
ssg2291
(dp3379
g636
g2573
ssg2298
(dp3380
g302
g2459
ssg2305
(dp3381
g1516
g2884
ssg2312
(dp3382
g688
g2589
ssg2319
(dp3383
g1516
g2888
ssg2326
(dp3384
g1427
g2814
ssg2333
(dp3385
g1427
g2830
sssb.