ccopy_reg
_reconstructor
p1
(cpandas.core.frame
DataFrame
p2
c__builtin__
object
p3
NtRp4
(dp5
S'_metadata'
p6
(lp7
sS'_typ'
p8
S'dataframe'
p9
sS'_data'
p10
g1
(cpandas.core.internals
BlockManager
p11
g3
NtRp12
((lp13
cpandas.core.index
_new_Index
p14
(cpandas.core.index
Index
p15
(dp16
S'data'
p17
cnumpy.core.multiarray
_reconstruct
p18
(cnumpy
ndarray
p19
(I0
tS'b'
tRp20
(I1
(L4L
tcnumpy
dtype
p21
(S'O8'
I0
I1
tRp22
(I3
S'|'
NNNI-1
I-1
I63
tbI00
(lp23
Vdescription
p24
aVid
p25
aVname
p26
aVunits
p27
atbsS'name'
p28
NstRp29
ag14
(cpandas.core.index
Int64Index
p30
(dp31
g17
g18
(g19
(I0
tS'b'
tRp32
(I1
(L17L
tg21
(S'i8'
I0
I1
tRp33
(I3
S'<'
NNNI-1
I-1
I0
tbI00
S'\x00\x00\x00\x00\x00\x00\x00\x00\x01\x00\x00\x00\x00\x00\x00\x00\x02\x00\x00\x00\x00\x00\x00\x00\x03\x00\x00\x00\x00\x00\x00\x00\x04\x00\x00\x00\x00\x00\x00\x00\x05\x00\x00\x00\x00\x00\x00\x00\x06\x00\x00\x00\x00\x00\x00\x00\x07\x00\x00\x00\x00\x00\x00\x00\x08\x00\x00\x00\x00\x00\x00\x00\t\x00\x00\x00\x00\x00\x00\x00\n\x00\x00\x00\x00\x00\x00\x00\x0b\x00\x00\x00\x00\x00\x00\x00\x0c\x00\x00\x00\x00\x00\x00\x00\r\x00\x00\x00\x00\x00\x00\x00\x0e\x00\x00\x00\x00\x00\x00\x00\x0f\x00\x00\x00\x00\x00\x00\x00\x10\x00\x00\x00\x00\x00\x00\x00'
tbsg28
NstRp34
a(lp35
g18
(g19
(I0
tS'b'
tRp36
(I1
(L4L
L17L
tg22
I00
(lp37
VThe altitude above mean sea level (MSL) obtained by applying corrections to the pressure altitude using the altimeter setting.  This parameter may have discrete jumps during these corrections.
p38
aVAn estimate of the altitude loss used in the calculation of Mode 3 "Don't Sink" alerts.  This is the drop in Baro-Corrected altitude while Mode 3 is active.
p39
aVThis is the maximum baro-corrected altitude (QNH or indicated altitude) recorded while airborne.
p40
aVThis is the maximum baro-corrected altitude (QNH or indicated altitude) recorded prior to the start of the first go-around.
p41
aVThis is the resulting baro-corrected altitude (indicated or QNH altitude) error derived from the "Selected Takeoff Altimeter Error (Worst)" using the ISA relationship between Pressure and Altitude.\u000a\u000a
p42
aVThis is the resulting baro-corrected altitude (indicated or QNH altitude) error derived from the "Selected Landing Altimeter Error (Worst)" using the ISA relationship between Pressure and Altitude.\u000a\u000a
p43
aVCalibrated airspeed (i.e. airspeed that has been corrected for position error, but assumes sea-level ambient air) recorded from the primary (or only) air data computer.
p44
aVThis parameter combines ground speed from multiple sources and weighs each contribution according to its relative uncertainty.  The sources are:\u000a\u000aGPS ground speed\u000aInertial ground speed\u000aWheel speed\u000aRate of Change of Recorded Latitude & Longitude\u000a\u000a
p45
aVThis is the uncertainty expressed as one standard deviation of  the difference between the true and "best available" ground speeds.
p46
aVExhaust Gas Temperature (EGT) or Interstage Turbine Temperature (ITT for turboprops) of the inboard (or only) engine on the left side of the airplane.    
p47
aVThe fuel flow rate that is expected for the left inboard engine at this flight condition and thrust level but with a nominal (not actual) EGT.
p48
aVThe fuel flow rate that is expected for the left inboard engine at this flight condition and thrust level but with a nominal (not actual) EGT.  During cruise, the N1 is also adjusted to the expected value required to generate the same thrust but at the nominal EGT.
p49
aVExhaust Gas Temperature (EGT) or Interstage Turbine Temperature (ITT for turboprops) of the inboard (or only) engine on the right side of the airplane.    
p50
aVThe fuel flow rate that is expected for the right inboard engine at this flight condition and thrust level but with a nominal (not actual) EGT.
p51
aVThe fuel flow rate that is expected for the right inboard engine at this flight condition and thrust level but with a nominal (not actual) EGT.  During cruise, the N1 is also adjusted to the expected value required to generate the same thrust but at the nominal EGT.
p52
aVLow-pressure spool rotation-rate as a percentage of maximum for the inboard (or only) engine on the left side of the airplane. 
p53
aVLow-pressure spool rotation-rate as a percentage of maximum for the inboard (or only) engine on the right side of the airplane. 
p54
aVH4sIAAAAAAAEAG2Q0QuCMBDG34P+B/HdbZVUiApBPQT2kgi9rrn0YM7aZvbnN5JVUvdwfHD34/vu4iPXrbjTs+D7kksDF+DKezRC6ggSvzbmGmHc9z3qF6hVFZ4TMsOnQ5azmjc0AKkNlYz7A/Mm9GusUUkNZa00ijLj+BCTFd6UgApF/XQ68bx4SMHVvkyd1GjX6KytgFER46+FEZBfObOZ2db6eBBJEIlvVGfz4P+LhYRbZ29NyVCzgJD1MgitDIhrrj6+P/h04obj36VPLpuOeVIBAAA=
p55
aVH4sIAAAAAAAEAG2QzQrCMBCE7wXfofTeJNWCUNqCoAehXpSC15jEdiFNNUmtj2+wxB90D8vA7sfMbr4Xppc3epJiy4WycAahw3snlcmgiFprLxnG4ziicYF63eA5IQk+7qoDa0VHY1DGUsVENDEvwjzHBnFqKeuV1ZRZz6eYLPGKA6o1jcpZEIb5lELoLS+9NGjTmapvgFGZ44+FL+BwEcxlZmvnE0KmQBaR1YPLg/8v1gqug7u1JFMlMUkTHqdOxsQ3X2/fH3wW+OH378oHUN3pRlIBAAA=
p56
aVH4sIAAAAAAAEAG2RXU+DMBSG75fsPyxc7K6UL6FuSMIEExJ3s2XGO9O1h61JKQidmBj/u7CFKerNSc/H8/ZtT7iBppRvdC8h46C0yAXUs/dCqmYh7oyj1tUC47ZtzdY1y/qAHcuy8fP6ccuOUFAkVKOpYmBcmCvRnNuNyammrFS6pkwPvIetAMdcmLuaGtF0MpuFFxdQZzyKq+KJyhOE+EdxNLStgHU+WdJpR3Opl5uy1C+phKJ7wPygl30t01D0549V6iZOEjvIu3nogn1vIRLHCUos3yaul96uiP3ZE3hAzslvzW87o+v/NbZT4vXU/WdE/CAgbuAhP88JssCnyAbfQwxcEgQ833OH/BW+4tPJ0BzvJ/oCntwyIrYBAAA=
p57
aVH4sIAAAAAAAEAG2RXWuDMBSG7wv9D+JF72L8jE3rBJkWhO2mpWN3I43HNuDXNJ2Dsf++2GI3t92E5Jw8b54kwRa6unhjhwLSDCopcgGt9l4WVbcSd/pJymaFcd/3Ru8YdXvEtmla+PnxYcdPUDIkqk6yioN+ZW5Ed2l3RsYk43UlW8blyLvY9HGUCWPfMj2czzQtuFpAm2Zh1JRPrDhDgH8UJ5t2DXDlyWOVHS4Kud7WtXxJCijVBRZHuR5qqYRymH9QEt+bShptzDhBLvE3iFpqsB2bJq5P4ihOPgcCj8hl8TvzW2dy/L9i+0q8ntV7huTg5blLAdmuuUSULh1EuE8R9zwfLOJQ6nh/g2/4fDY2p/8TfgHXSuz4tgEAAA==
p58
aVH4sIAAAAAAAEAG2Ry26DMBBF95HyD4hFdsY8jUkoEgIqIbWbRKm6q1wzJJZ4FZxSqeq/FxKRlLa78VyfO9cefwtdXbyz1wLSDCopcgGt8lEWVbcWd+pRymaNcd/3Wm9pdXvApq4b+PnxYcePUDIkqk6yioN6Ya5Ed5Y7LWOS8bqSLeNy4m2suzjMhLZvmRosF4riX1JAm2ZB2JRPrDiBj380Z5d2DfAhJ48H72BVyM22ruVLUkA5PGB1kJuxl0oox/rTM2MaUTdC9F53kZ0kFFHiEBRGia1HcWQnnvU1EnhCzoffnrc4s/H/BttX4u00/GcATkYoIR7ixCLIyl2CDNfIkem43LA85jgW/DW+4svFJM73E3wDRKHZabYBAAA=
p59
aVH4sIAAAAAAAEAG2RX2uDMBTF3wv9DuJD32Ji1EZaJ7jqQNheWjr2NmJybQX/TdM5GPvu0xbbue3t5p78zj3J9bbQVvk7T3KIJZQqSzNotI8iL9tVdqcflapXGHddZ3SWUTUHTAkx8cvT404coeAoK1vFSwH6hbkS7VluDckVF1WpGi7UyNuYMBzIzNg3XPfnM03zLimgiaUf1MUzz0/g4R/NyaVdDaLPKcLe21/kar2tKvUa5VD0D1gc1HroxQqKof6MAsZCx3FQQJYE2eH9Erm2xdCGkA2xlvSB0ehrIPCInA+/PW9xJuP/DbYvs7dT/58+M92EOFyihHKOXJMSJFOXIgmWAEKdVIjkr/EVn89Gcbof/xv9EkCVtgEAAA==
p60
aVH4sIAAAAAAAEAG2QTQvCMAyG78L+w9h9bacTYcyCoAdhXhTBa22rC3TdbKvz51sc9QMNJASSh/dNyq20rbqxo5JrIbWDE0gT3xulbQHzpHauKzDu+x71E9SaMx4TkuHDptrxWjYsBW0d01wmA/Mi7HNskWCO8VY7w7gLfI7JDC8EoL1hCY1GcVwOLqRZCxpai1aNrdozcKZK/LHwBew6yb1nvvQ6MRQa1Dxx5ur94P+Lew2Xq7+VkiGy1Oc0zX2bklBCvHV/8GgUht+/ow+i9hhIUgEAAA==
p61
aVH4sIAAAAAAAEAG2Q0QuCMBDG34X+B/HdbZYQiApBPQT2Ugi9zrn0YM7aZvbnN5JVUvdwfHD34/vu0iPXvbjTSvB9zaWBC3DlPzohdQJZ0BpzTTAexxGNK9SrBi8JifD5UJxYyzsagtSGSsaDiXkT+jXWqKaGsl4aRZlxfIzJGm9qQKWiQb7wfD+dUnC1r3MnNdp1uugbYFSk+GthBpyunNnMbGt9fEgkiCwwarB58P/FUsJtsLfmZKooJHFUhbGVIXHN1cf3B194bjj/Xf4EVneE1VIBAAA=
p62
aVH4sIAAAAAAAEAG2Q0QuCMBDG34P+B/HdbZUgiQpBPQT2kgi9rrn0YM7aZvbnN5JVUvdwfHD34/vukiPXnbjTs+D7iksDF+DKe7RC6hhSvzHmGmM8DAMaVqhTNV4SssCnQ16whrc0AKkNlYz7I/Mm9GusUUUNZZ00ijLj+BCTCG8qQKWifjafeV4ypuBqX2VOarRrdd7VwKhI8NfCBCiunNnMbGt9PIgliNQ3qrd58P/FUsKtt7dmZKxFQMJoHYRWBsQ1Vx/fH3w+c8Pp77InZjgsHFIBAAA=
p63
aVH4sIAAAAAAAEAG2QTQvCMAyG7wP/w9i9H+pAGLMg6GGgF2XgtXZVA1072+r8+RZH/UADCYHk4X2TciudUTd+ULJqpPZwBGnTe6u0K2Cenb3vCkL6vsf9FBt7IhNKx2S/We/EWbYcgXaeayGzgXkR7jl2uOGeC6O95cJHPid0RhYN4NryjI2SNC0HF9JWDYutw6vWrc0JBFcl+Vj4AnadFMGzWAadFAoNap55ew1+yP/FWsPlGm5ldIgxCpmjPLSIxhLjrfuDj5I4/P4dewCcR1rGUgEAAA==
p64
aVH4sIAAAAAAAEAG2QQQuCQBCF74H/Qby7u2YQiApBHQS7JELXbd10YF1td81+fpaYSc1heDDz8d5MeOK6EXd6ETwpuDRwBa7sRy2kDiByKmPaAOO+71Hvo0aVeE2Ih8/HNGMVr6kLUhsqGXdG5kPo91ijghrKGmkUZWbiN5hs8a4AlCvqxNbKtsMxBVdJEU9So0Ot06YERkWIvxYWQNZyNmRm+8HHhkCCiByjuiEP/r+YS7h1w60xGctzief77kvObarZ9we3VtNw+bv4CRp7pFVSAQAA
p65
aVH4sIAAAAAAAEAG2QTwuCQBDF74HfQby7u5ZQiApBHQS7JEHXbXfTgXW13TX7+Flif6g5DA9mfrw3E++FaeSVnqTIuFAWziC0e6ulMhEkXmVtG2Hc9z3qF6jRJZ4TEuDjLi9YJWrqgzKWKia8kXkR5jk2iFNLWaOspsxOfIjJEq85oIOmXurMXDceUwid8XSSBm1rkzclMCpj/LHwBRStYENmthl8XIgUyMSzuhvy4P+LBwWXbrg1JWMFPgnClf+Q7zbV2/cHd2bT8Pt36R3qpT6dUgEAAA==
p66
aVH4sIAAAAAAAEAG2QTQvCMAyG78L+w9h9badDYcyCoAdhXhTBa22rC3TdbKvz51sc9QMNJASSh/dNyq20rbqxo5JrIbWDE0gT3xulbQHzpHauKzDu+x71E9SaMx4TkuHDptrxWjYsBW0d01wmA/Mi7HNskWCO8VY7w7gLfI7JDC8EoL1hCY1GcVwOLqRZCxpai1aNrdozcKZK/LHwBew6yb1nvvQ6MRQa1Dxx5ur94P+Lew2Xq7+VkiGy1Oc0zX2bklBCvHV/8GgUht+/ow+hI64BUgEAAA==
p67
aVH4sIAAAAAAAEAG2Q0QuCMBDG34X+B/HdbVYQiApBPQj2kgi9rrnqYE7bZuvPz5JVUvdwfHD34/vukj3XrbjRo+B5zaWBE3Dl3xshdQxpcDGmizG21iK7QK064zkhET7sipJdeENDkNpQyXgwMm9Cv8Ya1dRQ1kqjKDOOX2KywusaUKVokM0830/GFFzldeakRttGF+0ZGBUJ/lqYAGXH2ZCZbQYfH2IJIg2M6oc8+P9iJeHaD7dmZKwoJNFiFT7lp7n6+P7gM88Np7/LHiG1PQFSAQAA
p68
aVH4sIAAAAAAAEAG2QTwvCMAzF78K+w9h9baeCMLaBoAdBLw7Ba+zqFuhabavz4zsd9Q+aQ3iQ/HgvybbCanmFgxSrSiiHRxQmvLVS2RTzqHHulFLadR3pJkSbmo4ZS+h+sy55I1qIUVkHiotoYF6EfY4tqcAB18oZ4M7zU8pmdF4h2RmIimAUhtmQQphVVXhpybK1a10jB5nRj4UvoDwJ3mfmi94nxFShzCNnLn0e+n9xp/B86W8t2FBJzJIpxA/5br7evj94MPLD798Vd3hGknpSAQAA
p69
aVH4sIAAAAAAAEAG2QQQuCQBCF74H/Qby7qyUEokJQB8EuidB1W1cdWFfbXbOf35ZYSb3DY2DmY95MdGKq4zdy4SwtmdBQAZP2veVChRA7jdZ9iPE4jmjcoE7WeO15Pj4fs5w2rCUuCKWJoMyZmDehXm2FSqIJ7YSWhOqZD7C3xbsSUCGJk1gr246mFEymZTKXCh1alXU1UMIj/DWwAPKeUZOZ7s0eG0IBPHa0HEwe/H+wEHAdzK2JN8l3jVVuYPxZTTbrs/cHt1Zzc/m75AFhspwAUgEAAA==
p70
aVH4sIAAAAAAAEAG2QTQvCMAyG78L+w9i9H1NBGFtB0IOgF0XwWruqga6dbef8+RZH/UADCYHk4X2TciudUTd+VHJVS+3hBNKm90ZpV0CVXbxvC0L6vsf9BBt7JmNKc3LYrHfiIhuOQDvPtZDZwLwI9xw7XHPPhdHecuEjPyV0RuY14L3lGUtGaVoOLqRd1Sy2Di8btzZnEFyV5GPhC9i1UgTPYhF0Uig0qCrztgt+yP/FvYZrF25ldIgchaRoGlpEY4nx1v3Bk1Ecfv+OPQCnicOSUgEAAA==
p71
aVBaro-Corrected Altitude (ft)
p72
aVAltitude Loss (Baro-Corrected Altitude) (ft)
p73
aVMeasurement: Maximum Baro-Corrected Altitude (ft)
p74
aVMeasurement: Maximum Baro-Corrected Altitude prior to First Go-Around (ft)
p75
aVMeasurement: Baro-Corrected Altitude (QNH) Error From Takeoff Altimeter Setting Error (ft)
p76
aVMeasurement: Baro-Corrected Altitude (QNH) Error From Landing Altimeter Setting Error (ft)
p77
aVAirspeed (calibrated; 1 or Only) (knots)
p78
aVGround Speed (best avail) (knots)
p79
aVUncertainty of Ground Speed (best avail) (knots)
p80
aVEGT (left inbd eng) (deg C)
p81
aVFuel Flow Expected at Expected EGT (left inbd eng) (lbs/hr)
p82
aVFuel Flow Expected at Expected N1 and EGT (left inbd eng) (lbs/hr)
p83
aVEGT (right inbd eng) (deg C)
p84
aVFuel Flow Expected at Expected EGT (right inbd eng) (lbs/hr)
p85
aVFuel Flow Expected at Expected N1 and EGT (right inbd eng) (lbs/hr)
p86
aVN1 (left inbd eng) (%)
p87
aVN1 (right inbd eng) (%)
p88
aVft
p89
aVft
p90
aVft
p91
aVft
p92
aVft
p93
aVft
p94
aVknots
p95
aVknots
p96
aVknots
p97
aVdeg C
p98
aVlbs/hr
p99
aVlbs/hr
p100
aVdeg C
p101
aVlbs/hr
p102
aVlbs/hr
p103
aV%
aV%
atba(lp104
g14
(g15
(dp105
g17
g18
(g19
(I0
tS'b'
tRp106
(I1
(L4L
tg22
I00
(lp107
g24
ag25
ag26
ag27
atbsg28
NstRp108
a(dp109
S'0.14.1'
p110
(dp111
S'axes'
p112
g13
sS'blocks'
p113
(lp114
(dp115
S'mgr_locs'
p116
c__builtin__
slice
p117
(I0
I4
L1L
tRp118
sS'values'
p119
g36
sasstbsb.