ccopy_reg
_reconstructor
p1
(cpandas.core.frame
DataFrame
p2
c__builtin__
object
p3
NtRp4
(dp5
S'_metadata'
p6
(lp7
sS'_typ'
p8
S'dataframe'
p9
sS'_data'
p10
g1
(cpandas.core.internals
BlockManager
p11
g3
NtRp12
((lp13
cpandas.indexes.base
_new_Index
p14
(cpandas.indexes.base
Index
p15
(dp16
S'data'
p17
cnumpy.core.multiarray
_reconstruct
p18
(cnumpy
ndarray
p19
(I0
tS'b'
tRp20
(I1
(L4L
tcnumpy
dtype
p21
(S'O8'
I0
I1
tRp22
(I3
S'|'
NNNI-1
I-1
I63
tbI00
(lp23
Vdescription
p24
aVid
p25
aVname
p26
aVunits
p27
atbsS'name'
p28
NstRp29
ag14
(cpandas.indexes.range
RangeIndex
p30
(dp31
S'start'
p32
I0
sS'step'
p33
I1
sS'stop'
p34
I338
sg28
NstRp35
a(lp36
g18
(g19
(I0
tS'b'
tRp37
(I1
(L4L
L338L
tg21
(S'O8'
I0
I1
tRp38
(I3
S'|'
NNNI-1
I-1
I63
tbI00
(lp39
VThe altitude above mean sea level (MSL) obtained by applying corrections to the pressure altitude using the altimeter setting.  This parameter may have discrete jumps during these corrections.
p40
aVAn estimate of the altitude loss used in the calculation of Mode 3 "Don't Sink" alerts.  This is the drop in Baro-Corrected altitude while Mode 3 is active.
p41
aVThis is the maximum baro-corrected altitude (QNH or indicated altitude) recorded while airborne.
p42
aVThis is the maximum baro-corrected altitude (QNH or indicated altitude) recorded prior to the start of the first go-around.
p43
aVThis is the resulting baro-corrected altitude (indicated or QNH altitude) error derived from the "Selected Takeoff Altimeter Error (Worst)" using the ISA relationship between Pressure and Altitude.\u000a\u000a
p44
aVThis is the resulting baro-corrected altitude (indicated or QNH altitude) error derived from the "Selected Landing Altimeter Error (Worst)" using the ISA relationship between Pressure and Altitude.\u000a\u000a
p45
aVThis altitude returns the first of the following that is available:\u000a1) Corrected trajectory altitude\u000a2) Baro-corrected altitude\u000a3) Pressure Altitude\u000a4) GPS Altitude
p46
aVThis is the most accurate available altitude at liftoff, in feet above mean sea level (MSL).  It is determined from the following order of preference:  corrected altitude, baro-corrected (QNH) altitude, GPS altitude , pressure (QNE) altitude.
p47
aVThis is the most accurate available altitude at touchdown, in feet above mean sea level (MSL).  It is determined from the following order of preference:  corrected altitude, baro-corrected (QNH) altitude, GPS altitude , pressure (QNE) altitude.
p48
aVOutput from the accelerometer oriented in the body normal direction.  It is equal to (sum of the normal forces on the airplane except weight) / (airplane mass).  Positive lift -> positive accel.
p49
aVCalibrated airspeed (i.e. airspeed that has been corrected for position error, but assumes sea-level ambient air) recorded from the primary (or only) air data computer.
p50
aVThis parameter combines ground speed from multiple sources and weighs each contribution according to its relative uncertainty.  The sources are:\u000a\u000aGPS ground speed\u000aInertial ground speed\u000aWheel speed\u000aRate of Change of Recorded Latitude & Longitude\u000a\u000a
p51
aVThis is the uncertainty expressed as one standard deviation of  the difference between the true and "best available" ground speeds.
p52
aVRatio of true airspeed over the speed of sound.
p53
aVRatio of true airspeed over the speed of sound as reported by the second air data computer channel.
p54
aVThis returns a derived temperature-corrected vertical speed, if available.  Otherwise, it returns inertial vertical speed.  If neither of these is available, it returns the pressure-based vertical speed.
p55
aVThe control column or pitch stick command.  This should be the value that results from combining the inputs from both crew members.
p56
aVThe control column or pitch stick command from the first officer.
p57
aVThe control column or pitch stick command from the captain.
p58
aVThis measurement will determine whether or not an aircraft's steering wheel or control stick is mechanically-linked.  The determination is made based on the library constant "Pilot Pitch Commands are Mechanically Linked Together (1=linked)."  Like the parameter, this measurement will return a 1 if the devices are linked and a 0 otherwise.
p59
aVThis constant is "1" if the captain's and first officer's pitch command devices are mechanically slaved to each other.\u000a\u000aOtherwise, if the two pitch command devices are independent of each other, this constant is "0".
p60
aVThis measurement returns 1 if the captain commanded the pitch rotation during takeoff, else if the first officer commanded it, the result is 0.  If the control columns are mechanically-linked or if the amount of activity is identical (for example, flat data), the result is DNE. 
p61
aVThis measurement returns 1 if the captain commanded the pitch rotation during the landing, else if the first officer commanded it, the result is 0.  If the control columns are mechanically-linked or if the amount of activity is identical (for example, flat data), the result is DNE. 
p62
aVThis measurement returns 1 if the captain commanded the pitch rotation during the first approach, else if the first officer commanded it, the result is 0.  If the control columns are mechanically-linked or if the amount of activity is identical (for example, flat data), the result is DNE. 
p63
aVThis is the standard deviation of the first officer's pitch command during 30 sec before and after the end of takeoff (in whatever units are recorded for pitch command for this airplane type).  If an independent first officer's pitch command is not available, the result is DNE.\u000a\u000aIn order to work correctly, this measurement requires that the first officer's pitch command be conveyed via a sidestick or control column that moves independently of the captain's.
p64
aVThis is the standard deviation of the captain's pitch command during the takeoff (in whatever units are recorded for pitch command for this airplane type).  If an independent captain's pitch command is not available, the result is DNE.\u000a\u000aIn order to work correctly, this measurement requires that the captain's pitch command be conveyed via a sidestick or control column that moves independently of the first officer's.
p65
aVThis is the standard deviation of the first officer's pitch command during the first approach (in whatever units are recorded for pitch command for this airplane type).  If an independent first officer's pitch command is not available, the result is DNE.\u000a\u000aIn order to work correctly, this measurement requires that the first officer's pitch command be conveyed via a sidestick or control column that moves independently of the captain's.
p66
aVThis is the standard deviation of the captain's pitch command during the first approach (in whatever units are recorded for pitch command for this airplane type).  If an independent captain's pitch command is not available, the result is DNE.\u000a\u000aIn order to work correctly, this measurement requires that the captain's pitch command be conveyed via a sidestick or control column that moves independently of the first officer's.
p67
aVThis is the standard deviation of the first officer's pitch command during the last approach and landing (in whatever units are recorded for pitch command for this airplane type).  If an independent first officer's pitch command is not available, the result is DNE.\u000a\u000aIn order to work correctly, this measurement requires that the first officer's pitch command be conveyed via a sidestick or control column that moves independently of the captain's.
p68
aVThis is the standard deviation of the captain's pitch command during the last approach and landing (in whatever units are recorded for pitch command for this airplane type).  If an independent captain's pitch command is not available, the result is DNE.\u000a\u000aIn order to work correctly, this measurement requires that the captain's pitch command be conveyed via a sidestick or control column that moves independently of the first officer's.
p69
aVThe control wheel or roll stick command.  This should be the value that results from combining the inputs from both crew members.
p70
aVControl wheel or roll stick command from the first officer.  Positive values correspond with a command to roll the right wing downward (RWD).
p71
aVControl wheel or roll stick command from the captain.  Positive values correspond with a command to roll the right wing downward (RWD).
p72
aVThis constant is "1" if the captain's and first officer's roll command devices are mechanically slaved to each other.\u000a\u000aOtherwise, if the two roll command devices are independent of each other, this constant is "0".
p73
aV
aVThe speed brake handle position (in whatever units are recorded for this parameter) that corresponds to the ground spoiler arming position.
p74
aVThe speed brake handle position (in either degrees or percent (whichever is recorded)) that manually extends the speed brakes to the full flight-spoiler position (max airborne speed brakes).
p75
aVThe speed brake handle position (in whatever units are recorded for this parameter) that corresponds to the minimum position for manually extending the speed brakes.
p76
aV
aVThe position of the lower (or only) rudder control surface;  positive values correspond to a deflection with the trailing edge to the right (TER).
p77
aVPosition of the upper (if more than one) rudder control surface;  positive values correspond to a deflection with the trailing edge to the right (TER).
p78
aVFuel flow rate into the inboard (or only) engine on the left side of the airplane.
p79
aVFuel flow rate into the inboard (or only) engine on the right side of the airplane.
p80
aV
aV
aV
aVThis parameter indicates either the shutoff or spar valve position or command that is normally used to complete the fuel path to the engine. This parameter is often referred to as a Spar Valve, Start Lever, Fuel Control Switch, or Engine Master Switch.
p81
aVThis parameter indicates either the shutoff or spar valve position or command that is normally used to complete the fuel path to the engine. This parameter is often referred to as a Spar Valve, Start Lever, Fuel Control Switch, or Engine Master Switch.
p82
aVThis is the temperature of the left inboard main landing gear brakes.
p83
aVThis is the temperature of the right inboard main landing gear brakes.
p84
aVThe pressure of the fluid in the first of multiple hydraulic systems used to move flight control surfaces and landing gear.
p85
aVThe pressure of the fluid in the second of multiple hydraulic systems used to move flight control surfaces and landing gear.
p86
aVThe pressure of the fluid in the third of multiple hydraulic systems used to move flight control surfaces and landing gear.
p87
aVThis returns the corrected trajectory latitude, if available.  Otherwise, it returns GPS latitude.  If neither of these are available, it returns inertial latitude.
p88
aVThis returns the corrected trajectory longitude, if available.  Otherwise, it returns GPS longitude.  If neither of these are available, it returns inertial longitude.
p89
aVThis is the great-circle distance from the aircraft to the central reference point (from the nav database) at the landing airport.
p90
aVEngine Anti-ice is Off if < 0.5;  Engine Anti-ice is On if > 0.5
p91
aVEngine Anti-ice is Off if < 0.5;  Engine Anti-ice is On if > 0.5
p92
aVThis parameter indicates that ice has been detected on the left inboard (or only) engine.
p93
aVThis parameter indicates that ice has been detected on the right inboard (or only) engine.
p94
aVLeft Wing Anti-ice is Off if < 0.5;  Left Wing Anti-ice is On if > 0.5
p95
aVRight Wing Anti-ice is Off if < 0.5;  Right Wing Anti-ice is On if > 0.5
p96
aVThis is the cabin pressure expressed as an equivalent altitude above sea level.
p97
aVIf the cabin altitude climbs above this value, it indicates that a cabin pressure warning should be triggered.
p98
aVThis is the rate of change of the cabin altitude.
p99
aVThis is the time when the cabin altitude is at its maximum during the airborne interval.
p100
aVThis is an alternative cabin altitude limit for use at high altitude airports.  If an airport is above the "Airport Elevation for High Altitude Landing Switch" threshold, the value of this constant will be used to trigger cabin pressure warnings.
p101
aVThis is the maximum cabin altitude while the aircraft is airborne.
p102
aVThis is the cabin pressure in PSI.
p103
aVThis is the cabin pressure in hpa (mbar).
p104
aVWarning that sounds if the cabin pressure drops too low.
p105
aVThe differential cabin pressure is the difference between the cabin pressure and the pressure outside of the aircraft.
p106
aVThis is the maximum allowed negative differential cabin pressure for the aircraft.  Negative differential cabin pressure occurs when the inside of the aircraft has a lower pressure than outside of the aircraft.
p107
aVThis is the maximum allowed differential cabin pressure for the aircraft (the difference between the cabin pressure and the outside pressure).
p108
aVThis is the time when the differential cabin pressure is at its minimum during the airborne interval.
p109
aVThis is the time when the differential cabin pressure is at its maximum during the airborne interval.
p110
aVThis is the minimum differential cabin pressure (difference between the cabin pressure and the outside pressure) while airborne.  Negative differential cabin pressure indicates higher cabin pressure outside than within the aircraft.
p111
aVThis is the maximum differential cabin pressure (difference between the cabin pressure and the outside pressure) while airborne.  High differential cabin pressure can strain the aircraft.
p112
aVThis is the closest the differential cabin pressure (difference between the cabin pressure and the outside pressure) comes to the safety valve limit while airborne.
p113
aVThe outflow valve regulates the cabin pressure by adjusting the outflow of cabin air.  This is the primary valve if the aircraft has multiple (typically aft).
p114
aVThe outflow valve regulates the cabin pressure by adjusting the outflow of cabin air.  This parameter should only be mapped if the aircraft has multiple outflow valves.
p115
aVThe state of the valve allowing bleed air to pass from the left inboard (or only) engine into the pneumatic bleed air ducts.
p116
aV
aVThe state of the valve allowing bleed air to pass from the right inboard (or only) engine into the pneumatic bleed air ducts.
p117
aV
aVThis is the pressure in the left or #1 bleed duct in pounds per square inch.
p118
aVThis is the pressure in the right or #2 bleed duct in pounds per square inch.
p119
aVExhaust Gas Temperature (EGT) or Interstage Turbine Temperature (ITT for turboprops) of the inboard (or only) engine on the left side of the airplane.    
p120
aV
aV
aV
aVExhaust Gas Temperature (EGT) or Interstage Turbine Temperature (ITT for turboprops) of the inboard (or only) engine on the right side of the airplane.    
p121
aV
aV
aV
aV
aV
aV
aV
aV
aV
aV
aV
aVLow-pressure spool rotation-rate as a percentage of maximum for the inboard (or only) engine on the left side of the airplane. 
p122
aV
aV
aV
aV
aVLow-pressure spool rotation-rate as a percentage of maximum for the inboard (or only) engine on the right side of the airplane. 
p123
aV
aV
aV
aVN1 Thrust setting commanded by the engine control system for the left inboard (or only left) engine.
p124
aVN1 Thrust setting commanded by the engine control system for the right inboard (or only right) engine.
p125
aV
aV
aV
aVHigh-pressure spool rotation-rate as a percentage of maximum for the inboard (or only) engine on the left side of the airplane. 
p126
aV
aV
aV
aV
aVHigh-pressure spool rotation-rate as a percentage of maximum for the inboard (or only) engine on the right side of the airplane. 
p127
aV
aV
aV
aV
aV
aV
aV
aV
aV
aV
aV
aV
aV
aV
aV
aVEngines\u005cOil\u005cDivergence of Oil Quantity (left inbd eng) - Oil Quantity Average (Quarts)
p128
aV
aV
aV
aV
aVEngines\u005cOil\u005cDivergence of Oil Quantity (right inbd eng) - Oil Quantity Average (Quarts)
p129
aV
aV
aV
aV
aV
aV
aV
aV
aV
aV
aV
aV
aVPosition of the cockpit engine control lever for the inboard (or only) engine on the left side of the airplane.
p130
aVPosition of the cockpit engine control lever for the inboard (or only) engine on the right side of the airplane.
p131
aVThis is the net thrust (forward force) generated by the left inboard engine as determined by an engine model or lookup table.
p132
aVThis is the net thrust (forward force) generated by the left inboard engine as determined by an engine model or lookup table.
p133
aVThis is the net thrust (forward force) generated by the right inboard engine as determined by an engine model or lookup table.
p134
aVThis is the net thrust (forward force) generated by the right inboard engine as determined by an engine model or lookup table.
p135
aVThis is the total net thrust (forward force) generated by all engines as determined by an engine model or lookup table.
p136
aVThis is the total net thrust (forward force) generated by all engines as determined by an engine model or lookup table.
p137
aVThis is an estimate of the amount by which the total engine thrust exceeds the total drag of the airplane.
p138
aVThis is an estimate of the amount by which the total engine thrust exceeds the total drag of the airplane.
p139
aVThis is the total thrust expected for normal airplane drag in the clean configuration and the current excess thrust (longitudinal load-factor).
p140
aVThis is the total thrust expected for normal airplane drag in the clean configuration and the current excess thrust (longitudinal load-factor).
p141
aVThe altitude above mean sea level (MSL) obtained by applying corrections to the pressure altitude using the altimeter setting.  This parameter may have discrete jumps during these corrections.
p142
aVAn estimate of the altitude loss used in the calculation of Mode 3 "Don't Sink" alerts.  This is the drop in Baro-Corrected altitude while Mode 3 is active.
p143
aVThis is the maximum baro-corrected altitude (QNH or indicated altitude) recorded while airborne.
p144
aVThis is the maximum baro-corrected altitude (QNH or indicated altitude) recorded prior to the start of the first go-around.
p145
aVThis is the resulting baro-corrected altitude (indicated or QNH altitude) error derived from the "Selected Takeoff Altimeter Error (Worst)" using the ISA relationship between Pressure and Altitude.\u000a\u000a
p146
aVThis is the resulting baro-corrected altitude (indicated or QNH altitude) error derived from the "Selected Landing Altimeter Error (Worst)" using the ISA relationship between Pressure and Altitude.\u000a\u000a
p147
aVThis altitude returns the first of the following that is available:\u000a1) Corrected trajectory altitude\u000a2) Baro-corrected altitude\u000a3) Pressure Altitude\u000a4) GPS Altitude
p148
aVThis is the most accurate available altitude at liftoff, in feet above mean sea level (MSL).  It is determined from the following order of preference:  corrected altitude, baro-corrected (QNH) altitude, GPS altitude , pressure (QNE) altitude.
p149
aVThis is the most accurate available altitude at touchdown, in feet above mean sea level (MSL).  It is determined from the following order of preference:  corrected altitude, baro-corrected (QNH) altitude, GPS altitude , pressure (QNE) altitude.
p150
aVOutput from the accelerometer oriented in the body normal direction.  It is equal to (sum of the normal forces on the airplane except weight) / (airplane mass).  Positive lift -> positive accel.
p151
aVCalibrated airspeed (i.e. airspeed that has been corrected for position error, but assumes sea-level ambient air) recorded from the primary (or only) air data computer.
p152
aVThis parameter combines ground speed from multiple sources and weighs each contribution according to its relative uncertainty.  The sources are:\u000a\u000aGPS ground speed\u000aInertial ground speed\u000aWheel speed\u000aRate of Change of Recorded Latitude & Longitude\u000a\u000a
p153
aVThis is the uncertainty expressed as one standard deviation of  the difference between the true and "best available" ground speeds.
p154
aVRatio of true airspeed over the speed of sound.
p155
aVRatio of true airspeed over the speed of sound as reported by the second air data computer channel.
p156
aVThis returns a derived temperature-corrected vertical speed, if available.  Otherwise, it returns inertial vertical speed.  If neither of these is available, it returns the pressure-based vertical speed.
p157
aVThe control column or pitch stick command.  This should be the value that results from combining the inputs from both crew members.
p158
aVThe control column or pitch stick command from the first officer.
p159
aVThe control column or pitch stick command from the captain.
p160
aVThis measurement will determine whether or not an aircraft's steering wheel or control stick is mechanically-linked.  The determination is made based on the library constant "Pilot Pitch Commands are Mechanically Linked Together (1=linked)."  Like the parameter, this measurement will return a 1 if the devices are linked and a 0 otherwise.
p161
aVThis constant is "1" if the captain's and first officer's pitch command devices are mechanically slaved to each other.\u000a\u000aOtherwise, if the two pitch command devices are independent of each other, this constant is "0".
p162
aVThis measurement returns 1 if the captain commanded the pitch rotation during takeoff, else if the first officer commanded it, the result is 0.  If the control columns are mechanically-linked or if the amount of activity is identical (for example, flat data), the result is DNE. 
p163
aVThis measurement returns 1 if the captain commanded the pitch rotation during the landing, else if the first officer commanded it, the result is 0.  If the control columns are mechanically-linked or if the amount of activity is identical (for example, flat data), the result is DNE. 
p164
aVThis measurement returns 1 if the captain commanded the pitch rotation during the first approach, else if the first officer commanded it, the result is 0.  If the control columns are mechanically-linked or if the amount of activity is identical (for example, flat data), the result is DNE. 
p165
aVThis is the standard deviation of the first officer's pitch command during 30 sec before and after the end of takeoff (in whatever units are recorded for pitch command for this airplane type).  If an independent first officer's pitch command is not available, the result is DNE.\u000a\u000aIn order to work correctly, this measurement requires that the first officer's pitch command be conveyed via a sidestick or control column that moves independently of the captain's.
p166
aVThis is the standard deviation of the captain's pitch command during the takeoff (in whatever units are recorded for pitch command for this airplane type).  If an independent captain's pitch command is not available, the result is DNE.\u000a\u000aIn order to work correctly, this measurement requires that the captain's pitch command be conveyed via a sidestick or control column that moves independently of the first officer's.
p167
aVThis is the standard deviation of the first officer's pitch command during the first approach (in whatever units are recorded for pitch command for this airplane type).  If an independent first officer's pitch command is not available, the result is DNE.\u000a\u000aIn order to work correctly, this measurement requires that the first officer's pitch command be conveyed via a sidestick or control column that moves independently of the captain's.
p168
aVThis is the standard deviation of the captain's pitch command during the first approach (in whatever units are recorded for pitch command for this airplane type).  If an independent captain's pitch command is not available, the result is DNE.\u000a\u000aIn order to work correctly, this measurement requires that the captain's pitch command be conveyed via a sidestick or control column that moves independently of the first officer's.
p169
aVThis is the standard deviation of the first officer's pitch command during the last approach and landing (in whatever units are recorded for pitch command for this airplane type).  If an independent first officer's pitch command is not available, the result is DNE.\u000a\u000aIn order to work correctly, this measurement requires that the first officer's pitch command be conveyed via a sidestick or control column that moves independently of the captain's.
p170
aVThis is the standard deviation of the captain's pitch command during the last approach and landing (in whatever units are recorded for pitch command for this airplane type).  If an independent captain's pitch command is not available, the result is DNE.\u000a\u000aIn order to work correctly, this measurement requires that the captain's pitch command be conveyed via a sidestick or control column that moves independently of the first officer's.
p171
aVThe control wheel or roll stick command.  This should be the value that results from combining the inputs from both crew members.
p172
aVControl wheel or roll stick command from the first officer.  Positive values correspond with a command to roll the right wing downward (RWD).
p173
aVControl wheel or roll stick command from the captain.  Positive values correspond with a command to roll the right wing downward (RWD).
p174
aVThis constant is "1" if the captain's and first officer's roll command devices are mechanically slaved to each other.\u000a\u000aOtherwise, if the two roll command devices are independent of each other, this constant is "0".
p175
aV
aVThe speed brake handle position (in whatever units are recorded for this parameter) that corresponds to the ground spoiler arming position.
p176
aVThe speed brake handle position (in either degrees or percent (whichever is recorded)) that manually extends the speed brakes to the full flight-spoiler position (max airborne speed brakes).
p177
aVThe speed brake handle position (in whatever units are recorded for this parameter) that corresponds to the minimum position for manually extending the speed brakes.
p178
aV
aVThe position of the lower (or only) rudder control surface;  positive values correspond to a deflection with the trailing edge to the right (TER).
p179
aVPosition of the upper (if more than one) rudder control surface;  positive values correspond to a deflection with the trailing edge to the right (TER).
p180
aVFuel flow rate into the inboard (or only) engine on the left side of the airplane.
p181
aVFuel flow rate into the inboard (or only) engine on the right side of the airplane.
p182
aV
aV
aV
aVThis parameter indicates either the shutoff or spar valve position or command that is normally used to complete the fuel path to the engine. This parameter is often referred to as a Spar Valve, Start Lever, Fuel Control Switch, or Engine Master Switch.
p183
aVThis parameter indicates either the shutoff or spar valve position or command that is normally used to complete the fuel path to the engine. This parameter is often referred to as a Spar Valve, Start Lever, Fuel Control Switch, or Engine Master Switch.
p184
aVThis is the temperature of the left inboard main landing gear brakes.
p185
aVThis is the temperature of the right inboard main landing gear brakes.
p186
aVThe pressure of the fluid in the first of multiple hydraulic systems used to move flight control surfaces and landing gear.
p187
aVThe pressure of the fluid in the second of multiple hydraulic systems used to move flight control surfaces and landing gear.
p188
aVThe pressure of the fluid in the third of multiple hydraulic systems used to move flight control surfaces and landing gear.
p189
aVThis returns the corrected trajectory latitude, if available.  Otherwise, it returns GPS latitude.  If neither of these are available, it returns inertial latitude.
p190
aVThis returns the corrected trajectory longitude, if available.  Otherwise, it returns GPS longitude.  If neither of these are available, it returns inertial longitude.
p191
aVThis is the great-circle distance from the aircraft to the central reference point (from the nav database) at the landing airport.
p192
aVEngine Anti-ice is Off if < 0.5;  Engine Anti-ice is On if > 0.5
p193
aVEngine Anti-ice is Off if < 0.5;  Engine Anti-ice is On if > 0.5
p194
aVThis parameter indicates that ice has been detected on the left inboard (or only) engine.
p195
aVThis parameter indicates that ice has been detected on the right inboard (or only) engine.
p196
aVLeft Wing Anti-ice is Off if < 0.5;  Left Wing Anti-ice is On if > 0.5
p197
aVRight Wing Anti-ice is Off if < 0.5;  Right Wing Anti-ice is On if > 0.5
p198
aVThis is the cabin pressure expressed as an equivalent altitude above sea level.
p199
aVIf the cabin altitude climbs above this value, it indicates that a cabin pressure warning should be triggered.
p200
aVThis is the rate of change of the cabin altitude.
p201
aVThis is the time when the cabin altitude is at its maximum during the airborne interval.
p202
aVThis is an alternative cabin altitude limit for use at high altitude airports.  If an airport is above the "Airport Elevation for High Altitude Landing Switch" threshold, the value of this constant will be used to trigger cabin pressure warnings.
p203
aVThis is the maximum cabin altitude while the aircraft is airborne.
p204
aVThis is the cabin pressure in PSI.
p205
aVThis is the cabin pressure in hpa (mbar).
p206
aVWarning that sounds if the cabin pressure drops too low.
p207
aVThe differential cabin pressure is the difference between the cabin pressure and the pressure outside of the aircraft.
p208
aVThis is the maximum allowed negative differential cabin pressure for the aircraft.  Negative differential cabin pressure occurs when the inside of the aircraft has a lower pressure than outside of the aircraft.
p209
aVThis is the maximum allowed differential cabin pressure for the aircraft (the difference between the cabin pressure and the outside pressure).
p210
aVThis is the time when the differential cabin pressure is at its minimum during the airborne interval.
p211
aVThis is the time when the differential cabin pressure is at its maximum during the airborne interval.
p212
aVThis is the minimum differential cabin pressure (difference between the cabin pressure and the outside pressure) while airborne.  Negative differential cabin pressure indicates higher cabin pressure outside than within the aircraft.
p213
aVThis is the maximum differential cabin pressure (difference between the cabin pressure and the outside pressure) while airborne.  High differential cabin pressure can strain the aircraft.
p214
aVThis is the closest the differential cabin pressure (difference between the cabin pressure and the outside pressure) comes to the safety valve limit while airborne.
p215
aVThe outflow valve regulates the cabin pressure by adjusting the outflow of cabin air.  This is the primary valve if the aircraft has multiple (typically aft).
p216
aVThe outflow valve regulates the cabin pressure by adjusting the outflow of cabin air.  This parameter should only be mapped if the aircraft has multiple outflow valves.
p217
aVThe state of the valve allowing bleed air to pass from the left inboard (or only) engine into the pneumatic bleed air ducts.
p218
aV
aVThe state of the valve allowing bleed air to pass from the right inboard (or only) engine into the pneumatic bleed air ducts.
p219
aV
aVThis is the pressure in the left or #1 bleed duct in pounds per square inch.
p220
aVThis is the pressure in the right or #2 bleed duct in pounds per square inch.
p221
aVExhaust Gas Temperature (EGT) or Interstage Turbine Temperature (ITT for turboprops) of the inboard (or only) engine on the left side of the airplane.    
p222
aV
aV
aV
aVExhaust Gas Temperature (EGT) or Interstage Turbine Temperature (ITT for turboprops) of the inboard (or only) engine on the right side of the airplane.    
p223
aV
aV
aV
aV
aV
aV
aV
aV
aV
aV
aV
aVLow-pressure spool rotation-rate as a percentage of maximum for the inboard (or only) engine on the left side of the airplane. 
p224
aV
aV
aV
aV
aVLow-pressure spool rotation-rate as a percentage of maximum for the inboard (or only) engine on the right side of the airplane. 
p225
aV
aV
aV
aVN1 Thrust setting commanded by the engine control system for the left inboard (or only left) engine.
p226
aVN1 Thrust setting commanded by the engine control system for the right inboard (or only right) engine.
p227
aV
aV
aV
aVHigh-pressure spool rotation-rate as a percentage of maximum for the inboard (or only) engine on the left side of the airplane. 
p228
aV
aV
aV
aV
aVHigh-pressure spool rotation-rate as a percentage of maximum for the inboard (or only) engine on the right side of the airplane. 
p229
aV
aV
aV
aV
aV
aV
aV
aV
aV
aV
aV
aV
aV
aV
aV
aVEngines\u005cOil\u005cDivergence of Oil Quantity (left inbd eng) - Oil Quantity Average (Quarts)
p230
aV
aV
aV
aV
aVEngines\u005cOil\u005cDivergence of Oil Quantity (right inbd eng) - Oil Quantity Average (Quarts)
p231
aV
aV
aV
aV
aV
aV
aV
aV
aV
aV
aV
aV
aVPosition of the cockpit engine control lever for the inboard (or only) engine on the left side of the airplane.
p232
aVPosition of the cockpit engine control lever for the inboard (or only) engine on the right side of the airplane.
p233
aVThis is the net thrust (forward force) generated by the left inboard engine as determined by an engine model or lookup table.
p234
aVThis is the net thrust (forward force) generated by the left inboard engine as determined by an engine model or lookup table.
p235
aVThis is the net thrust (forward force) generated by the right inboard engine as determined by an engine model or lookup table.
p236
aVThis is the net thrust (forward force) generated by the right inboard engine as determined by an engine model or lookup table.
p237
aVThis is the total net thrust (forward force) generated by all engines as determined by an engine model or lookup table.
p238
aVThis is the total net thrust (forward force) generated by all engines as determined by an engine model or lookup table.
p239
aVThis is an estimate of the amount by which the total engine thrust exceeds the total drag of the airplane.
p240
aVThis is an estimate of the amount by which the total engine thrust exceeds the total drag of the airplane.
p241
aVThis is the total thrust expected for normal airplane drag in the clean configuration and the current excess thrust (longitudinal load-factor).
p242
aVThis is the total thrust expected for normal airplane drag in the clean configuration and the current excess thrust (longitudinal load-factor).
p243
aV
aV
aVH4sIAAAAAAAEAG2Q0QuCMBDG34P+B/HdbZVUiApBPQT2kgi9rrn0YM7aZvbnN5JVUvdwfHD34/vu4iPXrbjTs+D7kksDF+DKezRC6ggSvzbmGmHc9z3qF6hVFZ4TMsOnQ5azmjc0AKkNlYz7A/Mm9GusUUkNZa00ijLj+BCTFd6UgApF/XQ68bx4SMHVvkyd1GjX6KytgFER46+FEZBfObOZ2db6eBBJEIlvVGfz4P+LhYRbZ29NyVCzgJD1MgitDIhrrj6+P/h04obj36VPLpuOeVIBAAA=
p244
aVH4sIAAAAAAAEAG2QzQrCMBCE7wXfofTeJNWCUNqCoAehXpSC15jEdiFNNUmtj2+wxB90D8vA7sfMbr4Xppc3epJiy4WycAahw3snlcmgiFprLxnG4ziicYF63eA5IQk+7qoDa0VHY1DGUsVENDEvwjzHBnFqKeuV1ZRZz6eYLPGKA6o1jcpZEIb5lELoLS+9NGjTmapvgFGZ44+FL+BwEcxlZmvnE0KmQBaR1YPLg/8v1gqug7u1JFMlMUkTHqdOxsQ3X2/fH3wW+OH378oHUN3pRlIBAAA=
p245
aVH4sIAAAAAAAEAG2RXU+DMBSG75fsPyxc7K6UL6FuSMIEExJ3s2XGO9O1h61JKQidmBj/u7CFKerNSc/H8/ZtT7iBppRvdC8h46C0yAXUs/dCqmYh7oyj1tUC47ZtzdY1y/qAHcuy8fP6ccuOUFAkVKOpYmBcmCvRnNuNyammrFS6pkwPvIetAMdcmLuaGtF0MpuFFxdQZzyKq+KJyhOE+EdxNLStgHU+WdJpR3Opl5uy1C+phKJ7wPygl30t01D0549V6iZOEjvIu3nogn1vIRLHCUos3yaul96uiP3ZE3hAzslvzW87o+v/NbZT4vXU/WdE/CAgbuAhP88JssCnyAbfQwxcEgQ833OH/BW+4tPJ0BzvJ/oCntwyIrYBAAA=
p246
aVH4sIAAAAAAAEAG2RXWuDMBSG7wv9D+JF72L8jE3rBJkWhO2mpWN3I43HNuDXNJ2Dsf++2GI3t92E5Jw8b54kwRa6unhjhwLSDCopcgGt9l4WVbcSd/pJymaFcd/3Ru8YdXvEtmla+PnxYcdPUDIkqk6yioN+ZW5Ed2l3RsYk43UlW8blyLvY9HGUCWPfMj2czzQtuFpAm2Zh1JRPrDhDgH8UJ5t2DXDlyWOVHS4Kud7WtXxJCijVBRZHuR5qqYRymH9QEt+bShptzDhBLvE3iFpqsB2bJq5P4ihOPgcCj8hl8TvzW2dy/L9i+0q8ntV7huTg5blLAdmuuUSULh1EuE8R9zwfLOJQ6nh/g2/4fDY2p/8TfgHXSuz4tgEAAA==
p247
aVH4sIAAAAAAAEAG2Ry26DMBBF95HyD4hFdsY8jUkoEgIqIbWbRKm6q1wzJJZ4FZxSqeq/FxKRlLa78VyfO9cefwtdXbyz1wLSDCopcgGt8lEWVbcWd+pRymaNcd/3Wm9pdXvApq4b+PnxYcePUDIkqk6yioN6Ya5Ed5Y7LWOS8bqSLeNy4m2suzjMhLZvmRosF4riX1JAm2ZB2JRPrDiBj380Z5d2DfAhJ48H72BVyM22ruVLUkA5PGB1kJuxl0oox/rTM2MaUTdC9F53kZ0kFFHiEBRGia1HcWQnnvU1EnhCzoffnrc4s/H/BttX4u00/GcATkYoIR7ixCLIyl2CDNfIkem43LA85jgW/DW+4svFJM73E3wDRKHZabYBAAA=
p248
aVH4sIAAAAAAAEAG2RX2uDMBTF3wv9DuJD32Ji1EZaJ7jqQNheWjr2NmJybQX/TdM5GPvu0xbbue3t5p78zj3J9bbQVvk7T3KIJZQqSzNotI8iL9tVdqcflapXGHddZ3SWUTUHTAkx8cvT404coeAoK1vFSwH6hbkS7VluDckVF1WpGi7UyNuYMBzIzNg3XPfnM03zLimgiaUf1MUzz0/g4R/NyaVdDaLPKcLe21/kar2tKvUa5VD0D1gc1HroxQqKof6MAsZCx3FQQJYE2eH9Erm2xdCGkA2xlvSB0ehrIPCInA+/PW9xJuP/DbYvs7dT/58+M92EOFyihHKOXJMSJFOXIgmWAEKdVIjkr/EVn89Gcbof/xv9EkCVtgEAAA==
p249
aVH4sIAAAAAAAEAG2QywrCMBBF9wX/oXSfR6sglLYg6KKgG6XgNqaxDqSpJtH4+QZLfKCzGC7MHO6dKbbCDPLGDlLUrVAWjiB0fO+lMjmUycnac06Icw67KR50RzJKU7LfrHf8JHqGQBnLFBfJyLwI8xwb3DLL+KCsZtwGfkbonCxawI1mSTWJ4rgYUwhdt1WQBq96sx464EwW5GPhC9idBfeZ+dL7xJArkGVi9dXnIf8XGwWXq7+1omOliGbTFM28RDS0UG/fH3wSheH376oH56oZZFIBAAA=
p250
aVH4sIAAAAAAAEAG2RXWuDMBSG7wv9D+JF72Lid9I6wWIHwnbT0rG7kcVjK2h0ms7B2H+fttjObTeHnI/nzZucYAttVbzz1wKSFKTKsxwa7aMsZLvM7/SjUvUS467rjM42quaALUJM/Pz4sBNHKDnKZau4FKBfmCvRntutkXLFRSVVw4UaeQcTH0dpbuwbrofzmaYFFxfQJGkY1eUTL04Q4B/FydCuBtH7FHGvHS4KtdpWlXrZFFD2D1gc1GqoJQrK4fxJY0JtavvIdImPHDOKEV0ThiyPRdHavnfNDfkaCDwi5+S35s3O5Pp/je1l/nbq/zO0QHjUZRlimecgy/JTRDnrA7FTW3DKHG79Fb7i89nYnO4n/AY3/yrLtgEAAA==
p251
aVH4sIAAAAAAAEAG2RX0+DMBTF35fsOxAe9lZaaIuwIQnsT0KiL1tmfDOldBtJKQidmBi/u7CFKerb7T39nXvaG2xFU8o3lkqRZELp/JCL2ngvpGrm+b150rqaQ9i2rdViq6yP0EHIhs+PDzt+EgUDuWo0U1yYV+ZGNBe5sTKmGS+VrhnXA08guoNRllv7mpnhdGIYwTWFqJMsjKriicmzCOCP5ujSrhK8y8lXnXc4k3qxLUv9spai6B4wO+pF30u0KPr6I3ZwjOkmBnS58QHBmAIPRRQ4th+t6XLlxij+7Ak4IJfDb8/vOKPx/wbbq/z13P1niJzUZannAkR9G7iZfQCMcA8QnxDCkOdhx/5rfMOnk0Ec7yf8Ao3T6/+2AQAA
p252
aVH4sIAAAAAAAEAG2QQQuCQBCF74H/Qby7qykEokJQB8EuidB1WzcdWFfbXbOf35ZYSb3DY2DmY95MfGSq4zdy5iyrmNBwASbte8uFiiBxGq37CONxHNEYoE7WeO15Pj4d8oI2rCUuCKWJoMyZmDehXm2FKqIJ7YSWhOqZD7G3wdsKUCmJk1or246nFExmVTqXCu1blXc1UMJj/DWwAIqeUZOZ7sweGyIBPHG0HEwe/H+wFHAdzK2pN8l3jQVuaPxZTTbrs/cHt1Zzc/m79AG+A5oaUgEAAA==
p253
aVH4sIAAAAAAAEAG2QTQvCMAyG78L+w9h9bacTYcyCoAdhXhTBa22rC3TdbKvz51sc9QMNJASSh/dNyq20rbqxo5JrIbWDE0gT3xulbQHzpHauKzDu+x71E9SaMx4TkuHDptrxWjYsBW0d01wmA/Mi7HNskWCO8VY7w7gLfI7JDC8EoL1hCY1GcVwOLqRZCxpai1aNrdozcKZK/LHwBew6yb1nvvQ6MRQa1Dxx5ur94P+Lew2Xq7+VkiGy1Oc0zX2bklBCvHV/8GgUht+/ow+i9hhIUgEAAA==
p254
aVH4sIAAAAAAAEAG2Q0QuCMBDG34X+B/HdbZYQiApBPQT2Ugi9zrn0YM7aZvbnN5JVUvdwfHD34/vu0iPXvbjTSvB9zaWBC3DlPzohdQJZ0BpzTTAexxGNK9SrBi8JifD5UJxYyzsagtSGSsaDiXkT+jXWqKaGsl4aRZlxfIzJGm9qQKWiQb7wfD+dUnC1r3MnNdp1uugbYFSk+GthBpyunNnMbGt9fEgkiCwwarB58P/FUsJtsLfmZKooJHFUhbGVIXHN1cf3B194bjj/Xf4EVneE1VIBAAA=
p255
aVH4sIAAAAAAAEAG2Q0QuCMBDG34P+B/HdbZUgiQpBPQT2kgi9rrn0YM7aZvbnN5JVUvdwfHD34/vukiPXnbjTs+D7iksDF+DKe7RC6hhSvzHmGmM8DAMaVqhTNV4SssCnQ16whrc0AKkNlYz7I/Mm9GusUUUNZZ00ijLj+BCTCG8qQKWifjafeV4ypuBqX2VOarRrdd7VwKhI8NfCBCiunNnMbGt9PIgliNQ3qrd58P/FUsKtt7dmZKxFQMJoHYRWBsQ1Vx/fH3w+c8Pp77InZjgsHFIBAAA=
p256
aVH4sIAAAAAAAEAG2QQQuCQBCF74H/Qby7qyUFokJQB8EuidB1WzcdWFfbXbOf35ZYSb3DY2DmY95MdGSq5Tdy5iwtmdBwASbte8OFCiF2aq27EONhGNCwQq2s8NLzfHw6ZDmtWUNcEEoTQZkzMm9CvdoKlUQT2gotCdUTH2Bvg7cloEISJ7EWth2NKZhMy2QqFdo3KmsroIRH+GtgBuQdoyYz3Zk9NoQCeOxo2Zs8+P9gIeDam1sTb5TvGlu7gfFnNdqkz94f3FpMzfnvkge7fEHAUgEAAA==
p257
aVH4sIAAAAAAAEAG2QzQrCMBCE74LvUHpvkqoglDYg6KFQL4rgNSaxXUjTmkTr4xss8QfdwzKw+zGzm++k7dSNnZQshdQOziBNdG+VthkUceNcn2E8DAMa5qgzNZ4RkuLjttrzRrYsAW0d01zGI/Mi7HNskWCO8U47w7gL/AKTJV4JQAfDYjqdRFE+ppCmFDRIizatrboaOFM5/lj4Ava95D4zX3ufCDINqoidufo8+P/iQcPl6m+lZKw0Iak4JQsvExJaqLfvDz6dhOH37+gDkfw/flIBAAA=
p258
aVH4sIAAAAAAAEAG2QTwvCMAzF74LfYey+ttOhMOZA0MNALw7Ba+2iC3Sdtp3z41sc9Q+aQ3iQ/HgvyXZgWnnjRwlFBcriCUEH90Yqk+IirK29pJT2fU/6KWn1mU4Yi+lhuylFDQ2PUBnLlYBwYF6EeY4NqbjlolVWc2E9n1A2p8sKyV7zMB+PgiAbUoAuqtxLQ9aN2bRnFFxm9GPhCygvIFxmsXI+AaYK5SK0unN56P/FvcJr527N2VBxxKYziBInI+abr7fvDz4e+eH37/IH05NOfVIBAAA=
p259
aVH4sIAAAAAAAEAG2QTwvCMAzF78K+w9h9baeCMLaBoIfBvCiC19jVGeg6bTvnx7c46h80h/Ag+fFekm2F6eQNjlKUtVAWTyh0eG+lMinm0dnaS0rpMAxkmJFON3TKWEIPm2rHz6KFGJWxoLiIRuZFmOfYkBos8E5ZDdx6fk7Zgi5rJHsNURFMwjAbUwhd1oWXhqxbU3UNcpAZ/Vj4AnYXwV1mvnI+IaYKZR5Z3bs89P/iXuG1d7cWbKwkZgySeO5kzHzz9fb9wYOJH37/rngAnd5HelIBAAA=
p260
aVH4sIAAAAAAAEAG2QTwvCMAzF74N9h7H72voPYcyBoIeBXhTBa+yqBrputp3z41scVYfmEB4kP95Lsp0wtbzDSYqiFMriGYWOHpVUJsVFfLW2SSntuo50E1LrCx0zNqLH7WbPr6KCBJWxoLiIe+ZNmNfYkBIs8FpZDdx6fkrZnC5LJAcNcR4GUZT1KYQuytxLQ9aV2dQX5CAz+rUwAPaN4C4zXzmfCFOFchFb3bo89P/iQeGtdbfmrK9RwhjMkqmTCfPN18f3Bw8DPxz+Ln8CphDeLlIBAAA=
p261
aVH4sIAAAAAAAEAG2QTwvCMAzF78K+w9h9bdWBMLaBoIeBXhyC19jVGei62Vbnx7c46h80h/Ag+fFeku2E6eQNjlKUtVAWTyh0eG+lMinm0dnaPqV0GAYyzEmnGzpjbEoP203Fz6KFGJWxoLiIRuZFmOfYkBos8E5ZDdx6PqFsQZc1kr2GqAgmYZiNKYQu68JLQ9at2XQNcpAZ/Vj4AqpecJeZr5xPiKlCmUdWX10e+n9xr/BydbcWbKxpzBgkceJkzHzz9fb9wYOJH37/rngAmKGcoFIBAAA=
p262
aVH4sIAAAAAAAEAG2RX0+DMBTF35fsOxAe9lZaWAtlQxJgkpDoy5YZ30wp3daEf0InJsbvLmxhivp2e09/5572elvRVvkbS3ORZKJU8iBFo70Xedmu5J1+UqpeQdh1ndEtjao5QgshEz4/Puz4SRQMyLJVrORCvzI3or3IrZExxXhVqoZxNfIYIgcGmTT2DdP9+UzTvGsK0SSZH9TFE8vPwoM/mpNLu1rwPiff9N7+IlfrbVWpl/tcFP0DFke1HnqJEsVQf4Q4DGOKKYgJigAONiag1IwAWlI3xFFs2gR9DgQckcvht+d3nMn4f4PtS/l67v/TZ9TODpikwOWUAYelCFBkEUAIx5nj2sQi4q/xDZ/PRnG6H/8LjMfVTLYBAAA=
p263
aVH4sIAAAAAAAEAG2QzQrCMBCE74LvUHJvErUolFoQ9CDUi6XgNabRLqRJTaL18Q2W+IPuYRnY/ZjZzfbCanljRym2tVAOTiBMdG+lsiksUeNclxLS9z3uZ1ibM5lSOiGHXVHyRrQsBmUdU1yggXkR9jm2uGaOca2cYdwFPiF0QVY14MowlI9HUZQNKYTZ1nmQFm9aW+gzcCYz8rHwBZSd4D4zX3ufCFIFcomcufo85P9ipeBy9bfmdKhpTOl8ESdexjS0UG/fH3w8CsPv3+UPj0CxEVIBAAA=
p264
aVH4sIAAAAAAAEAG2Ry26DMBBF95HyD4hFdsaAzSuhSCmkElKzSZSqu8qYIbHEq+CUSlX/vZCItLTdjef63Ln2+Dtoq/yNJTnEKZRSZAIa5b3Iy3Yp7tSTlPUS467rtI5oVXPEpq4b+Hn7uOcnKBgSZStZyUG9MjeivcitljLJeFXKhnE58hTrDl6nQjs0TA3mM0XxrymgidNgXRdPLD+Dj380J5f2NfA+J49672CRy9WuquTLJoeif8DiKFdDL5ZQDPWH9xB6ZOPcI484FFEzIsiLHBNZlksNatOQ6OHnQOARuRx+e37HmYz/N9ihFK/n/j8DA+zEsrMMZYRzlLhWgmzL05HtUDA4WI6bsL/GN3w+G8XpfoIvIbM59rYBAAA=
p265
aVH4sIAAAAAAAEAG2RX2+CMBTF3038DoYH30qLUBFlJCAsIdleNC57W0p7UZLyZ1DHkmXffaDBjW1vt/f0d+5pr7uDppRvLJEQCyhUlmZQz95zWTTr7E47KVWtMW7bVm9NvayPeEGIgZ8fH/b8BDlDWdEoVnDQrsyNaC5yowumGC8LVTOuBt7CxMa+yPRDzTRvOpnN3GsKqGPh+VX+xOQZXPyjObq0r4B3OXnYeXtzqTa7slQvkYS8e8D8qDZ9L1aQ9/WHvaW+5RgEhZEVIsuyCPKNIED3fkTNbbBYOZR+9gQekMvht+d3nNH4f4Mdiuz13P2nR03bALBTxBOHoyQRHC25SBGYyYpQ4EvHdP4a3/DpZBDH+/G+APjADxi2AQAA
p266
aVH4sIAAAAAAAEAG2Ry26DMBBF95HyDyiL7IyNyzOhSCiAhNRuEqXqrjL2NEEyj4JTKlX990IiktJ2N57rc+fa42+hreQ7yySkAkqVv+bQaB+FLNtVfr84KlWvMO66Tu/u9Ko5YEqIgZ8fH3b8CAVDedkqVnJYXJgr0Z7lVhdMMV6VqmFcjbyJiYNDkev7hi2C+UzT/EsKaFIRhHXxxOQJfPyjObm0q4H3OXnUewdLqdbbqlIvsYSif8DyoNZDL1VQDPWnF5nU9iyKQi+myKR0g8IwIWgT2yQ2YxpFSfI1EHhEzoffnrc4k/H/BtuX+dup/8/AcW2XeESgDBhBmWtbCBzHQsJyXSDUMjKD/TW+4vPZKE73E3wDHsZjp7YBAAA=
p267
aVH4sIAAAAAAAEAG2RX2uDMBTF3wv9DuJD32LiP2JaJ+hiQdheWjr2NmKMraDRaToHY9992mI3t73d3JPfuSe5/k50dfnG0lIkmZCqyAvRau9VKbt1caeflGrWEPZ9b/S2UbdHaCFkwufHhz0/iYqBQnaKSS70K3MjuovcGRlTjNdStYyriXcgwjDMCuPQMj1YLjTNv6YQbZIFYVM9sfIsfPijObu0bwQfcnI6eAerUm12da1e4lJUwwNWR7UZe4kS1Vh/RFs7pDii4J5GMXDMmIIQuxggSpytTSwbE/w5EnBCLoffnt9xZuP/DXaQxet5+M+ApV5GTJcAx8MpcCzmgTRHFkCuSbiJMck956/xDV8uJnG+n+ALhU64O7YBAAA=
p268
aVH4sIAAAAAAAEAG2RUW+CMBSF3038D4QH30rBFrDKSEAkIZkvGpe9LbUUbQKFQR1Llv33gQY3tr3d3tPv3NNeb8ebMn+jx5wnKZdKZILX2nuRy2YpHvSzUtUSwrZtjRYZZX2Cc9O04PP2cc/OvKBAyEZRybh+Y+5Ec5UbI6WKslKqmjI18BiaLgxSYRxqqvvTiaZ5txS8TlI/qIonml+4B380R5f2FWddThZ13v4sV6tdWaqXTc6L7gGzk1r1vUTxoq8/FmszjDGxAQnsDcDOIgYhJhZYYxTFkemEeEM+ewIOyPXw2/M7zmj8v8EOUrxeuv/0j8gihLoEIBc5gFPHBnNCKbBQZrsWzpDpZH+N7/h0Mojj/fhfmr+LXLYBAAA=
p269
aVH4sIAAAAAAAEAG2RwW+CMBTG7yb+D4SDt9JScAVlJE45kGwXjctuy7MtSlIKgzqWLPvfhxp0bLu9fq+/733ti9ayKdU77JRMhdQmz3JZWx+F0s0sv7cPxlQzjNu2dVrPKes9poS4+OXpccMPsgCU68aA5tK+MFeiObcbR4ABXmpTAzc972PC8ELkzrYGOx6PLCu6pJB1KuJFVTyDOsoI/xAHlzaV5F1Ovuq844ky83VZmtdEyaJ7wGRv5ictNbI41Z+EMddPggfkTSlD/jIJUJgkHvKWXjINGaFsFXydCNwj58Nvz1ucwfh/g211/nbs/jMWoRB3u0wg8JhAIRWABAkAubyTgQKlGfw1vuLjUd8c7if+BpENznW2AQAA
p270
aVH4sIAAAAAAAEAG2Ry26DMBBF95HyD4hFdsY8jZNQJBpYILWbRKm6q2wzSZDMo+CUSlX/vZCItLTdjef63Ln2BFtoK/nGuIQ0g1Llhxwa7b2QZbvK7/STUvUK467rjM4xquaIbdO08PPjw06coGAoL1vFSgH6lbkR7UVujYwpJqpSNUyokXex6eMoy419w/RwPtO04JoCmjQLo7p4YvIMAf7RnFza1SD6nCLuvcOFVOttVamXRELRP2BxVOuhlyoohvrj3tkQ07MosmgcITdOHLT0XIqihDiJT7yNk9ifA4FH5HL47fkdZzL+32D7Mn899/8ZCsrpkjg2As4y5HPqIhMoQybj1sEHTjjx/xrf8PlsFKf7Cb8AZGVKUbYBAAA=
p271
aVH4sIAAAAAAAEAG2RUW+CMBSF3038D4YH30op7QCVkSBCQrK9aFz2tpRyVRIoDOpYsuy/DzS4se3t9p5+5572ultoyvyNJznEKUiVHTKoZ+9FLptldq+dlKqWGLdtq7dUL+sjNg2D4OfHh504QcFRJhvFpQDtytyI5iI3esoVF6VUNRdq4Bk2bOynmb6vueZNJ7OZe00BdZx6flU88fwMLv7RHF3aVSC6nGLTeXvzXK22ZalewhyK7gHzo1r1vVhB0dcfzDcZiWiEyHpNEKMbBzlOsEBhRAIaUjMwbeuzJ/CAXA6/Pb/jjMb/G2wvs9dz958eMG6BDQ7ipsOQBYsDSljCEOEURGIJC8jdX+MbPp0M4ng/3herwWtPtgEAAA==
p272
aVH4sIAAAAAAAEAG2RzW6DMBCE75HyDohDbsbmx5gmFMkRPSC1l0SJequMMYklYyg4pVLVdy9JRFra3tY7/mbH3ngjulq9sVyJrBDayFKK1nqvlO6W8t4+GtMsIez73ul9p24P0EPIhc9Pj1t+FBUDUneGaS7sK3MjuovcOQUzjNfatIybkQ8gIpAW0tm1zE7mM8uKrylEmxUJbao9UycRwx/NyaVtI/iQk6eDd7JQZrWpa/PyoEQ1PGBxMKtzLzOiOtcfLnb9gNI7kEYkAoFLCVinBIMwXdMwINQlhH6eCTgil8Nvz+84k/H/Bttp+Xoa/jOJGC8FZhj4YYgAYiUGOfYw8BAu8jLwQ+Llf41v+Hw2itP9JF+MU3SitgEAAA==
p273
aVH4sIAAAAAAAEAG2QTwvCMAzF78K+w9h9bacDYWwDQQ+CXhwDr7GrGui62Vbnx7c46h80h/Ag+fFeku+E6eQNDlKsG6EsHlHo8N5KZTIsorO1fUbpMAxkmJFOn+iUsYTut5uKn0ULMSpjQXERjcyLMM+xIQ1Y4J2yGrj1fErZnC4aJLWGqAwmYZiPKYReN6WXhqxas+lOyEHm9GPhC6h6wV1mvnQ+IWYKZRFZfXV56P/FWuHl6m4t2VhJzBhM49TJmPnm6+37gwcTP/z+XfkAngvxM1IBAAA=
p274
aVH4sIAAAAAAAEAG2QQQvCMAyF7wP/w9h9bacDYWwDQQ+CXhyC19hVDXTdbKvz51scVYfmEB4kH+8l+U6YVt7hKMW6FsriCYUOH41UJsMiuljbZZT2fU/6GWn1mU4ZS+hhu6n4RTQQozIWFBfRwLwJ8xobUoMF3iqrgVvPp5TN6aJGstcQlZMgDPMhhdDruvTSkFVjNu0ZOcicfi2MgKoT3GXmS+cTYqZQFpHVN5eH/l/cK7ze3K0lGyqJGYN5nDoZM998fXx/8Engh+PflU+bdCrpUgEAAA==
p275
aVH4sIAAAAAAAEAG2QTwvCMAzF74N9h7H72voHhTEHgh4GelEEr7GrGui62XbOj29xVB2aQ3iQ/HgvyXbC1PIOJymKUiiLZxQ6elRSmRQX8dXaJqW06zrSTUitL3TM2Iget5s9v4oKElTGguIi7pk3YV5jQ0qwwGtlNXDr+Sllc7oskRw0xHkYRFHWpxC6KHMvDVlXZlNfkIPM6NfCANg3grvMfOV8IkwVykVsdevy0P+LB4W31t2as75GCWMwS6ZOJsw3Xx/fHzwM/HD4u/wJpcVoZ1IBAAA=
p276
aVH4sIAAAAAAAEAG2Q0QuCMBDG3wP/B/HdbZVUiAlBPQj2kgi9rrnsYM7aZvbnN5JVUvdwfHD34/vukgPXrbjTk+BZxaWBM3DlPxohdQzr4GLMNca473vUz1GrajwjZIqP+7xgF97QEKQ2VDIeDMyb0K+xRhU1lLXSKMqM4yNMlnhTASoVDVJv4vvJkIKrrEqd1GjX6LytgVGR4K+FEVBcObOZ2db6+BBLEOvAqM7mwf8XSwm3zt6akqFmISGLVRhZGRLXXH18f3Bv4obj36VPwcetpVIBAAA=
p277
aVH4sIAAAAAAAEAG2QzQrCMBCE74LvEHpvkmpBKG1B0INQL0rBa0yjLqRJTVLr4xss8QfdwzKw+zGzm++E1fLGjlJsGqEcnEAYdG+lshkU0cW5LiNkGAY8zLE2ZzKjNCGHbbXnF9GyGJR1THERjcyLsM+xxQ1zjGvlDOMu8CmhC7JsANeGReV0glA+phBm05RBWrxubaXPwJnMycfCF7DvBPeZ+cr7IMgUyCJypvd5yP/FWsG197eWdKwkpnR2jFMvYxpaqLfvDz6dhOH378oHL8SqDFIBAAA=
p278
aVH4sIAAAAAAAEAG2Q0QuCMBDG3wP/B/HdbZURiQlBPQj2kgi9rrnsYM7aZvbnN5JVUvdwfHD34/vukgPXrbjTk+BZxaWBM3DlPxohdQzr4GLMNca473vUz1GrajwjZIqP+7xgF97QEKQ2VDIeDMyb0K+xRhU1lLXSKMqM4yNMlnhTASoVDVJv4vvJkIKrrEqd1GjX6LytgVGR4K+FEVBcObOZ2db6+BBLEOvAqM7mwf8XSwm3zt6akqFmISGLVRhZGRLXXH18f3Bv4obj36VPkJGvslIBAAA=
p279
aVH4sIAAAAAAAEAG2QzQrCMBCE74LvUHJvEqMglFoQ9FCoF0XwGtNoF9KkJtH6+AZL/EH3sAzsfszs5lvpjLrxo5JlLbWHE0ib3FulXQYL1HjfZYT0fY/7KTb2TBilE3LYVDvRyJanoJ3nWkg0MC/CPccO19xzYbS3XPjIzwidk2UNeG85KsajJMmHFNKWdRGlw+vWVeYMgqucfCx8AbtOipBZrIJPApkGtUDeXkMe8n9xr+FyDbcWdCiWUsZYOgsypbHFevv+4ONRHH7/rngAa2UCWlIBAAA=
p280
aVH4sIAAAAAAAEAG2QQQvCMAyF74P9h7H72jonwpgDQQ/CvCiC19pFDXSdttX58y2OqkNzCA+Sj/eSYgOmlXd+kLCqQVk8Iujo0UhlcpzFZ2svOaVd15FuTFp9oiljI7pfV1txhoYnqIzlSkDcM2/CvMaG1Nxy0SqrubCezyib0nmNZKd5XIZBFBV9CtCruvTSkGVjqvaEgsuCfi0MgO0FhMssFs4nwlyhnMVW31we+n9xp/B6c7eWrK80YWwCSeZkwnzz9fH9wcPAD4e/K58HDdiPUgEAAA==
p281
aVH4sIAAAAAAAEAG2QQQuCQBCF74H/Qby7axYUokJQB8EuidB1WzcdWFfbXbOf35aYSc1heDDz8d5MeGKq4Xdy4SwpmNBwBSbtR82FCiByKq3bAOO+71G/Qo0sse95S3w+phmtWE1cEEoTQZkzMB9CvccKFUQT2ggtCdUjv8beBu8KQLkkTmwtbDscUjCZFPEoFTrUKm1KoISH+GthBmQtoyYz3RsfGwIBPHK07Ewe/H8xF3DrzK2xN5TvmkBb9yWnNtbk+4Nbi3E4/138BFr239ZSAQAA
p282
aVH4sIAAAAAAAEAG2QywrCMBBF90L/oXSfR1UQSlsQdCHoRhHcxjS2A2lSk9T6+QZLfKCzGC7MHO6dyffCanljZyk2lVAOLiBMfG+lshkUSeNclxEyDAMeZlibmkwpTclptz3wRrQMgbKOKS6SkXkR9jm2uGKOca2cYdwFfk7ogiwrwEfDkjKaxHE+phBmU5VBWrxu7VbXwJnMycfCF3DoBPeZ+cr7xJApkEXiTO/zkP+LRwXX3t9a0rFS5AMt0NxLREML9fb9waNJGH7/rnwAb71c/1IBAAA=
p283
aVH4sIAAAAAAAEAG2QzQrCMBCE74LvEHpvErUglLYg6KGgF6XgNaZpXUjTmkTj4xss8QfdwzKw+zGzm+2F6eWNnaQoa6EsNCA0undSmRTy6GztkBLinMNugXvdkjmlM3LcbQ/8LDoWgzKWKS6ikXkR5jk2uGaW8V5ZzbgNfELokqxqwJVmUTGdIJSNKYQu6yJIgzed2fYtcCYz8rHwBRwGwX1mvvY+CFIFMo+svvo85P9ipeBy9bcWdKxZTGmzjBMvYxpaqLfvDz6dhOH374oHHuM1wVIBAAA=
p284
aVH4sIAAAAAAAEAG2QTwvCMAzF78K+w9h9baeCMLaBoAdBL4rgtXZxC3TdbDvnx7c46h80h/Ag+fFeku3BtPLGzxI2JSiLFwQd3hupTIp5VFvbpZQOw0CGGWl1RaeMJfS02x5EDQ2PURnLlYBoZF6EeY4NKbnlolVWc2E9P6dsQZclkqPmURFMwjAbU4DelIWXhqwbs20rFFxm9GPhCzh0IFxmsXI+IaYKZR5Z3bs89P/iUeG1d7cWbKwkZuwM8dzJmPnm6+37gwcTP/z+XfEAEzlDd1IBAAA=
p285
aVH4sIAAAAAAAEAG2QywrCMBBF90L/oXSfR1UQShsQdCHoRhHcxjTqQJrUJLV+vsESH+gshgszh3tnyq10Rt34UclVLbWHE0ib3hulXQFVdvG+LQjp+x73E2zsmYwpzclhs96Ji2w4Au0810JmA/Mi3HPscM09F0Z7y4WP/JTQGZnXgPeWZywZpWk5pJB2VbMoHV42bm3OILgqycfCF7BrpQiZxSL4pFBoUFXmbRfykP+Lew3XLtzK6FA5olRQNA0S0dhivX1/8GQUh9+/Yw/W16qsUgEAAA==
p286
aVH4sIAAAAAAAEAG2QTwuCQBDF74HfQby7u2oRiApBHQS7JELXbd10YF1td80+fpbYH2oOw4OZH+/NRAeuW3GlJ8HTkksDZ+DKvjVC6hBipzamCzEehgENAWpVhX1CPHzcZzmreUNdkNpQybgzMS9CP8caldRQ1kqjKDMzv8RkjTcloEJRJ7EWth1NKbhKy2SWGu0anbUVMCoi/LHwBeQdZ2Nmth19bAgliNgxqh/z4P+LhYRLP96akKk8l/jByn3Id5vr7fuDW4t5+P275A4y7V0bUgEAAA==
p287
aVH4sIAAAAAAAEAG2QTwuCQBDF74HfQby7u2oUiApBHQS7JELXbd10YF1td80+fpbYH2oOw4OZH+/NRAeuW3GlJ8HTkksDZ+DKvjVC6hBipzamCzEehgENAWpVhX1CPHzcZzmreUNdkNpQybgzMS9CP8caldRQ1kqjKDMzv8RkjTcloEJRJ7EWth1NKbhKy2SWGu0anbUVMCoi/LHwBeQdZ2Nmth19bAgliNgxqh/z4P+LhYRLP96akKk8l/jByn3Id5vr7fuDW4t5+P275A4xOOtSUgEAAA==
p288
aVH4sIAAAAAAAEAG2QQQvCMAyF7wP/w9h9bZ0DYcyBoIeBXpSB19hVDXTdbKvz51scVYfmEB4kH+8l+U6YVt7hKEVZC2XxhEKHj0Yqk+EiuljbZZT2fU/6GWn1mSaMTelhu9nzi2ggRmUsKC6igXkT5jU2pAYLvFVWA7eeTymb02WNpNIQFZMgDPMhhdBlXXhpyLoxm/aMHGROvxZGwL4T3GXmK+cTYqZQLiKrby4P/b9YKbze3K0FG2oasySBOHUyZr75+vj+4JPAD8e/K54nOytlUgEAAA==
p289
aVH4sIAAAAAAAEAG2QywrCMBBF9wX/IXTfJD5AKG1B0EVBN0rBbUzTOpAmNYnWzzdY4gOdxXBh5nDvTLYXVssbO0lR1kI5aEAYdO+ksink8dm5PiVkGAY8zLE2LZlROiXH3fbAz6JjCSjrmOIiHpkXYZ9ji2vmGNfKGcZd4BeELsmqBlwZFheTCKFsTCFMWRdBWrzp7Fa3wJnMyMfCF3DoBfeZ+dr7IEgVyDx25urzkP+LlYLL1d9a0LGmCZ01TbLwMqGhhXr7/uCTKAy/f1c8APG2na9SAQAA
p290
aVH4sIAAAAAAAEAG2QzQrCMBCE74LvUHpvkmpBKG1B0EOhXpSC15hEXUjTmkTj4xss8Qfdw7Kw8zGzW2yF6eWNHqSouVAWjiB0dO+kMjmU8dnaIcfYOYfcHPX6hGeEpHi/aXbsLDqagDKWKibikXkR5rk2iFNLWa+spswGPsNkgZccUKtpXE0nUVSMKYSueRVGg9adafoTMCoL/CH4AnaDYD4zW3mfCHIFsoytvvo8+L+wVXC5+lsrMlaakLlvmR8TElqot+8PPp2E5ffvqgetW/oAUgEAAA==
p291
aVH4sIAAAAAAAEAG2QzQrCMBCE70LfofTeJFVRKG1A0IOgF0vBa0yiLqRpTaL18Q2W+IPuYRnY/ZjZLXbSturGDkquhdQOjiBNfG+UtjmUydm5Lse473vUT1BrTnhMSIb3203Fz7JhKWjrmOYyGZgXYZ9jiwRzjLfaGcZd4KeYzPFCAKoNS2g0iuNiSCHNWtAgLVo1dtOegDNV4I+FL6DqJPeZ+dL7xJBrUGXizNXnwf8Xaw2Xq7+VkqGylGQzkU69TElood6+P3g0CsPv39EH5gg701IBAAA=
p292
aVH4sIAAAAAAAEAG2QTwvCMAzF74LfYey+tlNRGNtA0MNAL4rgtXZxC3Sdtp3z41sc9Q+aQ3iQ/HgvSXdgWnnjJwlFCcriGUEH90Yqk2AW1tZeEkr7vif9lLS6ohPGYnrcbvaihoZHqIzlSkA4MC/CPMeGlNxy0SqrubCen1G2oMsSyUHzMB+PgiAdUoAuytxLQ9aN2bQVCi5T+rHwBewvIFxmsXI+ASYKZRZa3bk89P/iQeG1c7fmbKg4YvEcopmTEfPN19v3Bx+P/PD7d/kD2Ll5XVIBAAA=
p293
aVH4sIAAAAAAAEAG2QzQrCMBCE74LvUHpvErUolBoQ9FCoF0vBa0yiLqSpJqn18Q2W+IPuYRnY/ZjZzXfSturGDkoWQmoHR5AmujdK2wyW8dm5S4Zx3/eon6HWnPCUkAneb8uKn2XDEtDWMc1lPDAvwj7HFgnmGG+1M4y7wKeYLPBKAKoNi+l4FEX5kEKaQtAgLdo0tmxPwJnK8cfCF1BdJPeZ+dr7RJBpUMvYmc7nwf8Xaw3Xzt9KyVCThBAxT1IvExJaqLfvDz4eheH37+gDVerYF1IBAAA=
p294
aVH4sIAAAAAAAEAG2QQQvCMAyF74P9h7H72qoDYWwDQQ+DeXEIXmtbNdB12nbOn29xVB2aQ3iQfLyX5DthOnmnRykqLpSFEwgdPVqpTAZFfLH2mmE8DAMaFqjTZzwnZIYP27phF9HSBJSxVDERj8ybMK+xQZxayjplNWXW8ykmS7zigPaaxmUYRFE+phC64qWXBm1aU3dnYFTm+GthAjRXwVxmtnY+EWQKZBFb3bs8+P/iXsGtd7eWZKxZQghfJqmTCfHN18f3Bw8DP5z+rnwCa1uamVIBAAA=
p295
aVH4sIAAAAAAAEAG2QzQrCMBCE74LvUHpvErWglBoQ9FCoF0vBa0yiLqSpJqn18Q2W+IPuYRnY/ZjZzXfSturGDkoWQmoHR5AmujdK2wyW8dm5S4Zx3/eon6HWnPCUkAneb8uKn2XDEtDWMc1lPDAvwj7HFgnmGG+1M4y7wKeYzPFKAKoNi+l4FEX5kEKaQtAgLdo0tmxPwJnK8cfCF1BdJPeZ+dr7RJBpUMvYmc7nwf8Xaw3Xzt9KyVCThBCxSFIvExJaqLfvDz4eheH37+gDJdyGLVIBAAA=
p296
aVH4sIAAAAAAAEAG2QQQvCMAyF74P9h7H72m6KypgDQQ+CXhTBa23rDHTdbKvz51scVYfmEB4kH+8lxU6YRt7pSYo1F8rCGYSOHrVUJod5fLG2zTHuug51I9ToCmeEpPi43ezZRdQ0AWUsVUzEPfMmzGtsEKeWskZZTZn1/BiTKV5wQAdN4zIMoqjoUwi95qWXBq1qs2kqYFQW+GthAOxbwVxmtnQ+EeQK5Dy2+uby4P+LBwXXm7u1JH2lCckms2TsZEJ88/Xx/cHDwA+HvyufX6jYM1IBAAA=
p297
aVH4sIAAAAAAAEAG2QQQvCMAyF74P9h7H72m6K4pgDQQ+CXhTBa23rDHTdbKvz51scVYfmEB4kH+8lxU6YRt7pSYo1F8rCGYSOHrVUJod5fLG2zTHuug51I9ToCmeEpPi43ezZRdQ0AWUsVUzEPfMmzGtsEKeWskZZTZn1/BiTKV5wQAdN4zIMoqjoUwi95qWXBq1qs2kqYFQW+GthAOxbwVxmtnQ+EeQK5Dy2+uby4P+LBwXXm7u1JH2lCckms2TsZEJ88/Xx/cHDwA+HvyufYRmavVIBAAA=
p298
aVH4sIAAAAAAAEAG2Q0QuCMBDG34X+B/HdbZYgiApBPQT2Ugi9rrn0YM7aZvbnN5JVUvdwfHD34/vusgPXvbjTs+C7mksDF+DKf3RC6hTyoDXmmmI8jiMaV6hXDV4SEuHTvjyylnc0BKkNlYwHE/Mm9GusUU0NZb00ijLj+BiTBK9rQJWiQbHwfD+bUnC1qwsnNdp2uuwbYFRk+GthBhyvnNnMbGN9fEgliDwwarB58P/FSsJtsLcWZKooJHEShbGVIXHN1cf3B194bjj/XfEEEKQftVIBAAA=
p299
aVH4sIAAAAAAAEAG2QywrCMBBF94L/ULrPo7YglLYg6ELQjVJwG9OoA2lSk9T6+QZLfKCzGC7MHO6dKXbCanljRynWjVAOTiBMdG+lsjmU8cW5LidkGAY8pFibM5lRmpDDdrPnF9EyBMo6priIR+ZF2OfY4oY5xrVyhnEX+IzQOVk0gGvD4mo6iaJiTCHMuqmCtHjV2o0+A2eyIB8LX8C+E9xn5kvvE0GuQJaxM73PQ/4v1gquvb+1omMliNJ5ijIvEQ0t1Nv3B59OwvD7d9UDO5SFMlIBAAA=
p300
aVH4sIAAAAAAAEAG2Q0QuCMBDG3wP/B/HdbZYhiAlBPQj2UgS9rrnyYE7bZvbnN5JVUvdwfHD34/vusj3XrbjTs+BFxaWBC3DlPxohdQqroDamSzEehgENC9SqK54TEuHTrjywmjc0BKkNlYwHI/Mm9GusUUUNZa00ijLj+BiTBK8rQEdFg9yb+X42puCqqHInNdo2umyvwKjI8NfCBDh0nNnMbGN9fEgliFVgVG/z4P+LRwm33t6ak7GikJBkGcZWhsQ1Vx/fH9ybueH0d/kTPT7ooVIBAAA=
p301
aVH4sIAAAAAAAEAG2QywrCMBBF94L/ELrPoz4olLYg6ELQjaXgNqZRB9JUk2j9fIMlatFZDBdmDvfOZDtpW3XnByXXtdQOjiANejRK2xTy6OzcJaW06zrSTUlrTnTCWEz3200pzrLhGLR1XAsZ9cybsK+xJTV3XLTaGS5c4GeUJXRRA6kMj4rxCKGsTyHNui6CtGTV2E17AsFVRr8WBkB5kcJnFkvvgyDVoPLImZvPQ/8vVhquN39rwfqKMYuTOZ55iVlooT6+P/h4FIbD3xVPGChLXFIBAAA=
p302
aVH4sIAAAAAAAEAG2QzQrCMBCE74LvEHrPT1UslLYg6EHQi6XgNaZRF9JUk2h9fIMlatE9LAO7HzO72U7aVt35Qcl1LbWDI0iDHo3SNoU8Ojt3SSntuo50U9KaE50wFtP9dlOKs2w4Bm0d10JGPfMm7GtsSc0dF612hgsX+BllCV3UQCrDo2I8QijrU0izrosgLVk1dtOeQHCV0a+FAVBepPCZxdL7IEg1qDxy5ubz0P+LlYbrzd9asL5izOJkjmdeYhZaqI/vDz4eheHwd8UTG/39FVIBAAA=
p303
aVH4sIAAAAAAAEAG2QTwvCMAzF7wO/w9h9bacDYWwDQQ+CXhwDr7GrGui62Vbnx7c46h80h/Ag+fFeku+E6eQNDlKsG6EsHlHo8N5KZTIsorO1fUbpMAxkmJFOn+iUsYTut5uKn0ULMSpjQXERjcyLMM+xIQ1Y4J2yGrj1fErZnC4aJLWGqJwEYZiPKYReN6WXhqxas+lOyEHm9GPhC6h6wV1mvnQ+IWYKZRFZfXV56P/FWuHl6m4t2VhJ7AJBnDoZM998vX1/8Engh9+/Kx+z2eysUgEAAA==
p304
aVH4sIAAAAAAAEAG2QzQrCMBCE7wXfofSen6oglLYg6EHQi1LwmqZRF9KkJtH6+AZL1KJ7WAZ2P2Z2872wWt5ZLcWmEcrBCYSJH61UNoMiuTjXZYT0fY/7GdbmTKaUpuS42x74RbQMgbKOKS6SgXkT9jW2uGGOca2cYdwFfk7ogiwbwJVhSTmJ4jgfUgizacogLV63dqvPwJnMydfCCDh0gvvMfOV9YsgUyCJx5ubzkP+LlYLrzd9a0qFS5APVaO4loqGF+vj+4JMoDMe/K5+wDFrlUgEAAA==
p305
aVH4sIAAAAAAAEAG2Q0QuCMBDG34X+B/HdbZYUiApBPQT2kgi9rrnsYM7aZvbnN5JVUvdwfHD34/vu0gPXnbjTk+C7mksDZ+DKf7RC6gSy4GLMNcF4GAY0LFCnGjwnJMLHfVGyC29pCFIbKhkPRuZN6NdYo5oayjppFGXG8TEmK7yuAVWKBvnM8/10TMHVrs6d1Gjb6qJrgFGR4q+FCVBeObOZ2cb6+JBIEFlgVG/z4P+LlYRbb2/NyVhRSOJoGcZWhsQ1Vx/fH3zmueH0d/kTt3fAQVIBAAA=
p306
aVH4sIAAAAAAAEAG2QQQvCMAyF74P9h7H72m6KypgDQQ+CXhTBa23rDHTdbKvz51scVYfmEB4kH+8lxU6YRt7pSYo1F8rCGYSOHrVUJod5fLG2zTHuug51I9ToCmeEpPi43ezZRdQ0AWUsVUzEPfMmzGtsEKeWskZZTZn1/BiTKV5wQAdN4zIMoqjoUwi95qWXBq1qs2kqYFQW+GthAOxbwVxmtnQ+EeQK5Dy2+uby4P+LBwXXm7u1JH1lCUlnk2TsZEJ88/Xx/cHDwA+HvyufnshvMlIBAAA=
p307
aVH4sIAAAAAAAEAG2QTwvCMAzF78K+w9h9bacDYWwDQQ+CXhyC19jVLdB12lbnx7c46h80h/Ag+fFeku+E6eUNjlKsa6EsnlDo8N5JZTIsotbac0bpMAxkmJFeN3TKWEIP203FW9FBjMpYUFxEI/MizHNsSA0WeK+sBm49n1I2p4sayV5DVAaTMMzHFEKv69JLQ1ad2fQNcpA5/Vj4Aqqz4C4zXzqfEDOFsoisvro89P/iXuHl6m4t2VhJzNIE4tTJmPnm6+37gwcTP/z+XfkAVaIynFIBAAA=
p308
aVH4sIAAAAAAAEAG2RX2+CMBTF3038DoYH30pLQYrKSMBhQrK9aFz2tpRyUZLyZ1DHkmXffaDBjW1vt/f0d+5pr7uDppRvPJYQJVCoLM2gnr3nsmhW2Z12UqpaYdy2rd6aelkfMSXEwM+PD3txgpyjrGgULwRoV+ZGNBe50ROuuCgLVXOhBt7ChGE/yfRDzTVvOpnN3GsKqKPE86v8icszuPhHc3RpX4Hocor7ztubS7XelaV6CSXk3QPmR7Xue5GCvK8/bINuHMekiAaEIcu0GQqc0ET+NqDUsLYkpJvPnsADcjn89vyOMxr/b7BDkb2eu//0EsuxY8NaIJYIG6VLYiBghCKTGWLBlzROqf3X+IZPJ4M43o/3BXPTuB22AQAA
p309
aVH4sIAAAAAAAEAG2QQQvCMAyF7wP/w9h9bZ3CZGwDQQ+CXpSB19rWGei62Vbnz7c4qg7NITxIPt5L8r0wrbzTkxQbLpSFMwgdPhqpTAZFdLG2yzDu+x71M9TqGieETPFxtz2wi2hoDMpYqpiIBuZNmNfYIE4tZa2ymjLr+TkmKV5yQJWmUTkJwjAfUgi94aWXBq0bs21rYFTm+GthBBw6wVxmtnI+IWQKZBFZfXN58P/FSsH15m4tyVBJTKaLNJ47GRPffH18f/BJ4Ifj35VPoHktvFIBAAA=
p310
aVH4sIAAAAAAAEAG2RX0+DMBTF35fsOxAe9lYKlL8bkuCAhERftsz4ZkpbNpJSEDoxMX53YQtT1Lfbe/o797Q32LGu5m845yyjTMiyKFmrvFdcdOvyTj1J2awh7Pte65FWt0do6roBnx8f9uTEKgxK0UksCFOvzI3oLnKnUSwxqYVsMZETb0HdhREttUOL1XC5UJTgmoK1GQ2jpnrC/MwC+KM5u7RvGBlyknjwDldcbnZ1LV8SzqrhAauj3Iy9TLJqrD/81NGRk/gAoXQLLCf2QLQ1fGD6nhGj+9iz0+RzJOCEXA6/Pb/jzMb/G+wgytfz8J8h8myP2QQB2zIpwIVlAze3KLBp4RYFcXHuWH+Nb/hyMYnz/YRflXNc9rYBAAA=
p311
aVH4sIAAAAAAAEAG2Q0QuCMBDG34X+B/HdbZZQiApBPQT2kgi9rrnsYM7aZvbnN5JVUvdwfHD34/vu0gPXnbjTk+C7mksDZ+DKf7RC6gSy4GLMNcF4GAY0LFCnGjwnJMLHfVGyC29pCFIbKhkPRuZN6NdYo5oayjppFGXG8TEmS7yuAVWKBvnM8/10TMHVrs6d1Gjb6qJrgFGR4q+FCVBeObOZ2cb6+JBIEFlgVG/z4P+LlYRbb2/NyVhRSOJoFcZWhsQ1Vx/fH3zmueH0d/kTx0Gee1IBAAA=
p312
aVH4sIAAAAAAAEAG2Q0QuCMBDG34X+B/HdbZYgiApBPQT2Ugi9rrn0YM7aZvbnN5JVUvdwfHD34/vusgPXvbjTs+C7mksDF+DKf3RC6hTyoDXmmmI8jiMaV6hXDV4SEuHTvjyylnc0BKkNlYwHE/Mm9GusUU0NZb00ijLj+BiTBK9rQJWiQbHwfD+bUnC1qwsnNdp2uuwbYFRk+GthBhyvnNnMbGN9fEgliDwwarB58P/FSsJtsLcWZKooJHGUhLGVIXHN1cf3B194bjj/XfEEicaCz1IBAAA=
p313
aVH4sIAAAAAAAEAG2QTwvCMAzF78K+w9h9baeCMLaBoIfBvCiC19rFGeg6bTvnx7c46h80h/Ag+fFekm3BdPLGjxLKGpTFE4IO761UJsU8Olt7SSkdhoEMM9Lphk4ZS+hhU+3EGVoeozKWKwHRyLwI8xwbUnPLRaes5sJ6fk7Zgi5rJHvNoyKYhGE2pgBd1oWXhqxbU3UNCi4z+rHwBewuIFxmsXI+IaYKZR5Z3bs89P/iXuG1d7cWbKwkZgySeO5kzHzz9fb9wYOJH37/rngAd64Yy1IBAAA=
p314
aVH4sIAAAAAAAEAG2Q0QuCMBDG34X+B/HdbZYQiQpBPQT2kgi9rrnsYM7aZvbnN5JVUvdwfHD34/vu0gPXnbjTk+C7mksDZ+DKf7RC6gSy4GLMNcF4GAY0LFCnGjwnJMLHfVGyC29pCFIbKhkPRuZN6NdYo5oayjppFGXG8TEmS7yuAVWKBvnM8/10TMHVrs6d1Gjb6qJrgFGR4q+FCVBeObOZ2cb6+JBIEFlgVG/z4P+LlYRbb2/NyVhRSOJoFcZWhsQ1Vx/fH3zmueH0d/kT+fDc9VIBAAA=
p315
aVH4sIAAAAAAAEAG2QQQvCMAyF74P9h7H72m4K6pgDQQ+CXhTBa23rDHTdbKvz51scVYfmEB4kH+8lxU6YRt7pSYo1F8rCGYSOHrVUJod5fLG2zTHuug51I9ToCmeEpPi43ezZRdQ0AWUsVUzEPfMmzGtsEKeWskZZTZn1/BiTCV5wQAdN4zIMoqjoUwi95qWXBq1qs2kqYFQW+GthAOxbwVxmtnQ+EeQK5Dy2+uby4P+LBwXXm7u1JH1lCUmns2TsZEJ88/Xx/cHDwA+Hvyuf0E9zhlIBAAA=
p316
aVH4sIAAAAAAAEAG2QQQvCMAyF74P9h7H72m4qypgDQQ+CXhTBa23rDHTdbKvz51scVYfmEB4kH+8lxU6YRt7pSYo1F8rCGYSOHrVUJod5fLG2zTHuug51I9ToCmeEpPi43ezZRdQ0AWUsVUzEPfMmzGtsEKeWskZZTZn1/BiTKV5wQAdN4zIMoqjoUwi95qWXBq1qs2kqYFQW+GthAOxbwVxmtnQ+EeQK5Dy2+uby4P+LBwXXm7u1JH1lCUlnk2TsZEJ88/Xx/cHDwA+HvyufnR3Ze1IBAAA=
p317
aVH4sIAAAAAAAEAG2RX0+DMBTF35fsOyw87K20tLDihiQgmJDoy5YZ30wpZWtS/gidmBi/u7CFKerb7T39nXva621FW6k3liqRZKLUMpeiWbwXqmzX8tY4al2vIey6zuyIWTUHiBGy4PPjw44fRcGALFvNSi6MC3Ml2rPcmhnTjFelbhjXI29DRGGQSXPfMMOfzxYL75JCNEnmB3XxxNRJePBHc3JpVwve5+RR7+0vld5sq0q/xEoU/QOWB70ZeokWxVB/4HsaWVEUgNCKbWCHTgTcO7QCIabkhlAcI4o+BwKOyPnw2/M7zmT8v8H2pXw99f/p42yFSJo7gCCXA8YyCkROU+Bi4lo2tohtOX+Nr/h8NorT/fhfvNKZD7YBAAA=
p318
aVH4sIAAAAAAAEAG2RXWuDMBSG7wv9D8WL3sXERBdtnRC2DoTtpqVjdyPG01aIH9N0Dsb++7TFdm67OeR8PG/e5IRraEr9LhMNcQqFyXYZ1LOPXBfNIru1DsZUC4zbtrVbZpf1HlNCHPzy9LhRB8glyorGyEKBdWYuRHNqN3YqjVRlYWqpzMC7mHAs0sze1tKKppPZLDy7gDpOI1Hlz1IfIcQ/iqOhTQWq86nuO+1ors1yXZbmdaUh7x4w35tlX4sN5P35078LBBPiARFOKXIZE0gEK4q463kuZ0TwG/7VE3hATslvzaud0fX/GtsW2dux+88ImPS55xJEHNmHIEGeDHxEaOJTnu6kcuCv8AWfTobmeD/RN140B1C2AQAA
p319
aVH4sIAAAAAAAEAG2RzW6DMBCE75HyDohDbsYGTKEJRYKQA1J7SZSqt8rYS2KJv4JTKlV990IiktL25t3xNztr+1toq/ydpTkkAkolMwmN9lHkZbuUD/pRqXqJcdd1RmcbVXPAFiEmfnl63PEjFAzJslWs5KBfmCvRnuXWEEwxXpWqYVyNPMXExaGQxr5hejCfaZp/SQFNIoKwLp5ZfgIf/2hOLu1q4H1OHvfewSJXq21VqddNDkW/wOKgVkMvUVAM50/qrB3TCTcoWns2onFEUXRnOX1JPdOxonvqxV8DgUfkXPz2vMWZjP832L6Ub6f+PYMUbOIKiyKaEg9xj7nIE5SiDGzmEkZpRqy/xld8PhvF6f8E3/dExi+2AQAA
p320
aVH4sIAAAAAAAEAG2RX2+CMBTF3038DoYH30r/gLRTRgJOE5L5onHZ21LboiRQGNSxZNl3H2hwY9vb7T39nXva629VXWRv/JCpWCpt0iRV1eQ9z3Q9T++tkzHlHMKmaezGsYvqCAlCGD5vHnfipHIOUl0broWyrsyNqC9ybUtuuCi0qbgwPe9CRGEoU3tfcSsYjyYT/5pCVbEMwjJ/4tlZ+fBHc3BpVyrR5hQPrXcwzcxiWxTmZZWpvH3A9GgWXS82Ku/qj8gJ17MVXgLieBFwCUaAudgFESaUspAtI7L+7AjYI5fDb8/vOIPx/wbb6/T13P5ngKiQJEkYOLjiDmAkMUiQxwBzlKAedWbM8/4a3/DxqBeH+wm+AHW6TE22AQAA
p321
aVH4sIAAAAAAAEAG2Ry27CMBBF90j8A8qCneO8HUMayQEqRWo3IKruKsceIFJeTUxTqeq/NwGFNm1347k+d649wRaaMnvjSQaxhEKlhxTq2XueFc0ivdNOSlULjNu21VtbL+sjtgzDxM+PDztxgpyjtGgULwRoV+ZGNBe50SVXXJSFqrlQA+9gg2AmU31fcy2cTmaz4JoC6liGrMqfeHaGAP9oji7tKhBdTrHuvMN5ppbbslQvmwzy7gHzo1r2vVhB3tcfkc9823IYikxCkGOvV4hR6iIabVauS8m9x8hnT+ABuRx+e37HGY3/N9i+SF/P3X+G1DuYluFL5HrcRiCpiRLJDUQsw0qEzQl3/L/GN3w6GcTxfsIv7KFNtLYBAAA=
p322
aVH4sIAAAAAAAEAG2Q0QuCMBDG34X+B/HdbZYRiApBPQT2kgi9rrnsYM7aZvbnN5JVUvdwfHD34/vu0gPXnbjTk+C7mksDZ+DKf7RC6gSy4GLMNcF4GAY0LFCnGjwnJMLHfVGyC29pCFIbKhkPRuZN6NdYo5oayjppFGXG8TEmK7yuAVWKBvnM8/10TMHVrs6d1Gjb6qJrgFGR4q+FCVBeObOZ2cb6+JBIEFlgVG/z4P+LlYRbb2/NyVhRSOJoGcZWhsQ1Vx/fH3zmueH0d/kTtKJ2CFIBAAA=
p323
aVH4sIAAAAAAAEAG2QTwvCMAzF74LfYey+tupEGNtA0IOgF8fAa+3iFug6bavz41sc9Q+aQ3iQ/HgvSfdgOnnjRwmbCpTFE4IO7q1UJsEsbKw9J5T2fU/6Gel0TaeMTehhty1EAy2PUBnLlYBwYF6EeY4NqbjlolNWc2E9H1O2oMsKSal5mI9HQZAOKUBvqtxLQ9at2XY1Ci5T+rHwBRRnEC6zWDmfABOFMgutvro89P9iqfBydbfmbKhJxOI5RLGTEfPN19v3Bx+P/PD7d/kDhBz0eVIBAAA=
p324
aVH4sIAAAAAAAEAG2QTwvCMAzF78K+w9h9bacDYWwDQQ+CXhyC19rFLdB12lbnx7c46h80h/Ag+fFeku/A9PLGjxLWNSiLJwQd3jupTIZF1Fp7zigdhoEMM9Lrhk4ZS+hhu6lECx2PURnLlYBoZF6EeY4NqbnloldWc2E9n1I2p4sayV7zqAwmYZiPKUCv69JLQ1ad2fQNCi5z+rHwBVRnEC6zWDqfEDOFsoisvro89P/iXuHl6m4t2VhJzBJI49TJmPnm6+37gwcTP/z+XfkAV8dg7FIBAAA=
p325
aVH4sIAAAAAAAEAG2QQQvCMAyF7wP/w+h9bdWBMLaBoIeBXhTBa+3qDHTtbKvz51scVYfmEB4kH+8l+U5YLe/sJEVVC+XgDMLEj1Yqm0GBLs51GSF93+N+jrVpyIzSKTluN3t+ES1LQFnHFBdoYN6EfY0trpljXCtnGHeBTwldkGUN+GAYKidRHOdDCmGqugzS4nVrN7oBzmROvhZGwL4T3GfmK+8TQ6ZAFsiZm89D/i8eFFxv/taSDjVN6IymSeplQkML9fH9wSdRGI5/Vz4BjTKCJ1IBAAA=
p326
aVH4sIAAAAAAAEAG2QTwvCMAzF74LfYey+tlNRGNtA0MNAL4rgtXZxC3Sdtp3z41sc9Q+aQ3iQ/HgvSXdgWnnjJwlFCcriGUEH90Yqk2AW1tZeEkr7vif9lLS6ohPGYnrcbvaihoZHqIzlSkA4MC/CPMeGlNxy0SqrubCen1G2oMsSyUHzMB+PgiAdUoAuytxLQ9aN2bQVCi5T+rHwBewvIFxmsXI+ASYKZRZa3bk89P/iQeG1c7fmbKg4YjHMo5mTEfPN19v3Bx+P/PD7d/kDaqOUK1IBAAA=
p327
aVH4sIAAAAAAAEAG2QTwuCQBDF74HfQby7u5oRiAlBHQS7JEHXbd1yYF1td80+fkuy/aHmMDyY+fHeTLbnuhM3ehK8qLk0cAau/HsrpE5hFTTG9CnG4ziicY46dcExIRE+7sqKNbylIUhtqGQ8mJgXoZ9jjWpqKOukUZQZxyeYLPG6BnRQNMi9me9nUwquijp3UqNtq8vuAoyKDH8sfAFVz5nNzDbWx4dUglgFRg02D/6/eJBwHeytOZkqCklMFmFiZUhcc/X2/cG9mRt+/y5/ALODwKlSAQAA
p328
aVH4sIAAAAAAAEAG2QTwvCMAzF74LfYey+tlNBGdtA0MNAL4rgtXZxC3Sdtp3z41sc9Q+aQ3iQ/HgvSXdgWnnjJwlFCcriGUEH90Yqk2AW1tZeEkr7vif9lLS6ohPGYnrcbvaihoZHqIzlSkA4MC/CPMeGlNxy0SqrubCen1E2p8sSyUHzMB+PgiAdUoAuytxLQ9aN2bQVCi5T+rHwBewvIFxmsXI+ASYKZRZa3bk89P/iQeG1c7fmbKg4YjEsopmTEfPN19v3Bx+P/PD7d/kDGpXKEVIBAAA=
p329
aVH4sIAAAAAAAEAG2QTwvCMAzF74LfYey+tlNBHNtA0MNAL4rgtXZxC3Sdtp3z41sc9Q+aQ3iQ/HgvSXdgWnnjJwlFCcriGUEH90Yqk2AW1tZeEkr7vif9lLS6ohPGYnrcbvaihoZHqIzlSkA4MC/CPMeGlNxy0SqrubCen1E2p8sSyUHzMB+PgiAdUoAuytxLQ9aN2bQVCi5T+rHwBewvIFxmsXI+ASYKZRZa3bk89P/iQeG1c7fmbKg4YjEsopmTEfPN19v3Bx+P/PD7d/kDJCSIn1IBAAA=
p330
aVH4sIAAAAAAAEAG2QTQvCMAyG7wP/w9i9H+pAGLMg6GGgF2XgtXZVA1072+r8+RZH/UADCYHk4X2TciudUTd+ULJqpPZwBGnTe6u0K2Cenb3vCkL6vsf9FBt7IhNKx2S/We/EWbYcgXaeayGzgXkR7jl2uOGeC6O95cJHPid0RhYN4NryjI2SNC0HF9JWDYutw6vWrc0JBFcl+Vj4AnadFMGzWAadFAoNap55ew1+yP/FWsPlGm5ldIgxCpmjPLSIxhLjrfuDj5I4/P4dewCcR1rGUgEAAA==
p331
aVH4sIAAAAAAAEAG2QzQrCMBCE74LvUHJvEn9QKG1B0EOhXiwFrzGJupAmmqTWx7daahXdwzKw+zGzG++kM+rGDkpmQmoPR5A2uFdKuwgSdPb+EhHSNA1uZtjYE5lSOiH7bV7ws6xYCNp5prlEHfMm3GvssGCecaO9Zdz3/JzQJVkJwKVlKB2PgiDuUkibibSXDm8ql5sTcKZi8rHwBRQXydvMfN36BBBpUAnytm7zkP+LpYZr3d6a0q4mIZ0uDuFTDq2vwfcHH4/64ffv0gcgFx+2UgEAAA==
p332
aVH4sIAAAAAAAEAG2QQQvCMAyF78L+w9h9baeCMraBoIeBXhTBa9dWDXTdbKvz51sdVYfmEB4kH+8l2VaYRt5oJUXJhbJwBKHDey2VSSGPzta2KcZd16Fughp9wmNCEnzYrHfsLGoagzKWKiainnkT5jU2iFNLWaOspsx6forJDC84oL2mURGMwjDrUwhd8sJLg1a1WTcnYFRm+GthAOxawVxmtnQ+IaQKZB5ZfXV58P/FvYLL1d1akL6SmJB5FT/lp/n6+P7gwcgPh78rHiESF8ZSAQAA
p333
aVH4sIAAAAAAAEAG2QTwuCQBDF70LfQby7u/0jEBWCOgh2SYSu2+5qA+tau2v28bPETGoOw4OZH+/NhEdhanmnZykSLpSFAoR2H5VUJoDIu1h7DTBu2xa1S1TrEi8ImePTIc3YRVTUB2UsVUx4PfMhzHtsEKeWslpZTZkd+BUmG7zlgHJNvXjmuG7YpxA64fEgDdpXJq1LYFSG+GthAmRXwbrMbNf5uBAokJFnddPlwf8XcwW3prs1Jn3NfUKKtf+SYxtq9P3BZ84wnP4ufgLNDhwtUgEAAA==
p334
aVH4sIAAAAAAAEAG2QTQvCMAyG78L+w9h9badDYcyCoAdhXhTBa22rC3TdbKvz51sc9QMNJASSh/dNyq20rbqxo5JrIbWDE0gT3xulbQHzpHauKzDu+x71E9SaMx4TkuHDptrxWjYsBW0d01wmA/Mi7HNskWCO8VY7w7gLfI7JDC8EoL1hCY1GcVwOLqRZCxpai1aNrdozcKZK/LHwBew6yb1nvvQ6MRQa1Dxx5ur94P+Lew2Xq7+VkiGy1Oc0zX2bklBCvHV/8GgUht+/ow+hI64BUgEAAA==
p335
aVH4sIAAAAAAAEAG2QQQuCQBCF74H/Qby7u1ZQiApBHQS7JELXbd10YF1td81+fpaYSc1heDDz8d5McOK6Fnd6ETzOuTRwBa7sRyWk9iF0SmMaH+Ou61C3QrUq8JIQD5+PScpKXlEXpDZUMu4MzIfQ77FGOTWU1dIoyszIrzHZ4F0OKFPUiayFbQdDCq7iPBqlRodKJ3UBjIoAfy3MgLThrM/M9r2PDb4EETpGtX0e/H8xk3Br+1sjMpTnErJl7ktObazJ9we3FuNw/rvoCR+jVUhSAQAA
p336
aVH4sIAAAAAAAEAG2QTwuCQBDF70LfQby7u/2hQFQI6iDYJRG6brurDaxr7a7Zx88SM6k5DA9mfrw3Ex6FqeWdnqVIuFAWChDafVRSmQAi72LtNcC4bVvULlGtS7wgZI5PhzRjF1FRH5SxVDHh9cyHMO+xQZxaymplNWV24FeYbPCWA8o19eKZ47phn0LohMeDNGhfmbQugVEZ4q+FCZBdBesys13n40KgQEae1U2XB/9fzBXcmu7WmPQ19wkp1v5Ljm2o0fcHnznDcPq7+AnO26pkUgEAAA==
p337
aVH4sIAAAAAAAEAG2QzQrCMBCE70LfofTeJK2CUNqAoIdCvSiC15hGXUiTmqTGx7da6g+6h2Vg92NmN98Iq+WVHaQoa6EcHEGY8NZIZTMoorNzbYax9x75KdLmhFNCErxfV1t+Fg2LQVnHFBfRwLwI+xxbVDPHuFbOMO5GfobJHC9qQDvDIhpMwjAfUghT1nSUFq0aW+kTcCZz/LHwBWxbwfvMfNn7hJApkEXkTNfnwf8XdwouXX8rJUMlMUnTefyQ7zbW2/cHDybj8Pt39A4V1kYdUgEAAA==
p338
aVH4sIAAAAAAAEAG2QQQuCQBCF70L/Qby7u1pQiApBHQK7JELXbXfTgXWt3S37+VliJjWH4cHMx3sz8UGYRt7pSYodF8rCGYR2H7VUJoLEq6y9RBi3bYvaOWp0iUNCAnzcZzmrRE19UMZSxYTXMx/CvMcGcWopa5TVlNmBX2CyxGsOqNDUS2eO68Z9CqF3PB2kQdvaZE0JjMoYfy1MgPwiWJeZbTofFyIFMvGsvnV58P/FQsH11t2akr4Cn4Thyn/JsQ01+v7gM2cYTn+XPgFbUVqpUgEAAA==
p339
aVH4sIAAAAAAAEAG2QQQuCQBCF70L/Qby7u1oQiQpBHQK7JELXbXfTgXWt3S37+VliJjWH4cHMx3sz8UGYRt7pSYodF8rCGYR2H7VUJoLEq6y9RBi3bYvaOWp0iUNCAnzcZzmrRE19UMZSxYTXMx/CvMcGcWopa5TVlNmBX2CyxGsOqNDUS2eO68Z9CqF3PB2kQdvaZE0JjMoYfy1MgPwiWJeZbTofFyIFMvGsvnV58P/FQsH11t2akr4Cn4Thyn/JsQ01+v7gM2cYTn+XPgFl4BgnUgEAAA==
p340
aVH4sIAAAAAAAEAG2QTwvCMAzF74LfYey+tpuCMLaBoIfBvCiC19hVDXTdbKv141sd8w+aQ3iQ/HgvydbCtPIKeynKWiiLBxQ6uDVSmRTz8GRtl1LqnCNuQlp9pAljMd2tqg0/iQYiVMaC4iLsmRdhnmNDarDAW2U1cDvwU8pmdF4j2WoIi/EoCLI+hdBlXQzSkGVjqvaIHGRGPxa+gE0nuM/MF94nwFShzEOrLz4P/b+4VXi++FsL1lccsSSB6CHfbai37w8+Hg3D798Vd8my9k5SAQAA
p341
aVH4sIAAAAAAAEAG2QQQuCQBCF74H/Qby7u1oQiC4EdRDskgRdt3XTgXW13TX7+VliFjWH4cHMx3sz8UGYRt7YWYq0EMrCBYR277VUJoLEq6xtI4z7vkf9EjW6xCEhAT7ts5xXomY+KGOZ4sIbmTdhXmODCmYZb5TVjNuJX2GyxpsC0FEzjzoL143HFEKnBZ2kQbvaZE0JnMkYfyx8AXkr+JCZbwcfFyIFMvGs7oY8+P/iUcG1G26lZKzAJ2F49p9yblPNvj+4s5iG37+jD8pnQAdSAQAA
p342
aVH4sIAAAAAAAEAG2QQQuCQBCF74H/Qby7u1oQiApBHQS7JELXbd10YF1td81+fpaYSc1heDDz8d5MeOK6EXd6ETwpuDRwBa7sRy2kDiByKmPaAOO+71G/Ro0qsU+Ih8/HNGMVr6kLUhsqGXdG5kPo91ijghrKGmkUZWbiN5hs8a4AlCvqxNbKtsMxBVdJEU9So0Ot06YERkWIvxYWQNZyNmRm+8HHhkCCiByjuiEP/r+YS7h1w60xGctzie8z9yXnNtXs+4Nbq2m4/F38BPTWAolSAQAA
p343
aVH4sIAAAAAAAEAG2QTwuCQBDF74HfQby7u1oQiApBHQS7JELXbXfTgXW13TX7+Flif6g5DA9mfrw3Ex+EaeWVnqTIuFAWziC0e2ukMhEkXm1tF2E8DAMalqjVFQ4JCfBxnxesFg31QRlLFRPexLwI8xwbxKmlrFVWU2ZnfoXJGm84oFJTL3UWrhtPKYTOeDpLg3aNydsKGJUx/lj4AopOsDEz244+LkQKZOJZ3Y958P/FUsGlH29NyVSBT8KQ+w/5bnO9fX9wZzEPv3+X3gHMzS2UUgEAAA==
p344
aVH4sIAAAAAAAEAG2QTwvCMAzF74LfYey+tpuCMLaBoIfBvCiC19pFDXTdbKv141sd8w+aQ3iQ/HgvydZgWnnlewllDcriAUEHt0Yqk2IenqztUkqdc8RNSKuPNGEsprtVtREnaHiEyliuBIQ98yLMc2xIzS0XrbKaCzvwU8pmdF4j2WoeFuNREGR9CtBlXQzSkGVjqvaIgsuMfix8AZsOhM8sFt4nwFShzEOrLz4P/b+4VXi++FsL1lccsSSB6CHfbai37w8+Hg3D798Vd/J8bxpSAQAA
p345
aVH4sIAAAAAAAEAG2QTwvCMAzF74LfYey+tv4BYWwDQQ8DvSgDrzWrM9B1s63Wj291zCmaQ3iQ/HgvSXbCNPLGj1LkpVAWTyh0cK+lMjGm4dnaNqbUOUfcjDS6olPGJvSw3ezhLGoeoTKWKxBhx7wJ8xobUnLLoVFWc7A9P6dsQZclkkLzMBuPgiDpUgidl1kvDVnXZtNUCFwm9GPhC9i3AnxmWHmfAGOFMg2tvvo89P9iofBy9bdmrKtJxBhA9JRD62vw/cHHo374/bvsAeFFHA5SAQAA
p346
aVH4sIAAAAAAAEAG2QQQuCQBCF74H/Qby7qyUEokJQB8EuidB1W1cdWFfbXbOf35ZYSb3DY2DmY95MdGKq4zdy4SwtmdBQAZP2veVChRA7jdZ9iPE4jmjcoE7WeO15Pj4fs5w2rCUuCKWJoMyZmDehXm2FSqIJ7YSWhOqZD7C3xbsSUCGJk1gr246mFEymZTKXCh1alXU1UMIj/DWwAPKeUZOZ7s0eG0IBPHa0HEwe/H+wEHAdzK2JN8l3jVVuYPxZTTbrs/cHt1Zzc/m75AFhspwAUgEAAA==
p347
aVH4sIAAAAAAAEAG2QQQvCMAyF74L/Yey+tlNBGNtA0MNAL8rAa+yqBrputtX6862OOUVzCA+Sj/eSdCtMI29wkKKohLJ4RKGDey2VSTALz9a2CaXOOeKmpNEnOmEspvvNesfPooYIlbGguAg75k2Y19iQCizwRlkN3Pb8jLI5XVRISg1hPh4FQdqlELqo8l4asqrNujkhB5nSj4UvYNcK7jPzpfcJMFEos9Dqq89D/y+WCi9Xf2vOuoojFjOInnJofQ2+P/h41A+/f5c/AJI2zctSAQAA
p348
aVH4sIAAAAAAAEAG2QTwuCQBDF70HfQby7u/aHQFQI6hDYJRG6butkA+tau2v28bPETGoOw4OZH+/NhAcwlbzzk4RdDsriGUE7j1IqE2DkXqy9BpQ2TUOaOal0QWeM+fS4T1JxgZJ7qIzlSoDbMR/CvMeG5NxyUSmrubA9v6BsRdc5kkxzN55OHCfsUoDe5XEvDdmWJqkKFFyG9GthBKRXEG1msWl9HAwUysi1um7z0P+LmcJb3d4as658j/lL8F5yaH0Nvj/4dNIPx7+Ln1nX5O9SAQAA
p349
aVH4sIAAAAAAAEAG2QzQrCMBCE70LfoeTeJFVBLW1A0IOgF0XwGpPYLqRpTaL18a2W+oPuYRnY/ZjZTbfKVfrKj1qtpDIeTqBseCu1cQlkqPC+TghpmgY3I1zZnAwpjclhs96JQpU8AuM8N0KhjnkR7jl2WHLPRWW85cL3/JjQCZlLwHvLEQsGYZh2KZRdSdZLh5elW1c5CK5T8rHwBexqJdrMYtH6hJAY0Bny9tLmIf8X9wbOl/ZWRruKI0pn0+gh362vt+8PHgz64ffv2B2qe+KpUgEAAA==
p350
aVH4sIAAAAAAAEAG2QTwuCQBDF74LfQby7u/2BQHQhqENgl0Touu1uNrCutbtmHz9LzKTmMDyY+fHeTHKQtlZ3dlJyJ6R2cAZpgkeltI0hDS/OXWOM27ZF7QLVpsRzQmb4uM9yfpEVi0BbxzSXYc98CPseWySYY7zWzjDuBn6JyQqvBaDCsJD6XhAkfQppdoIO0qJtZbO6BM5Ugr8WJkB+lbzLzDedTwCxBpWGzjRdHvx/sdBwa7pbKelrFhHCRfSSYxtq9P3BfW8YTn9Hn9leMxNSAQAA
p351
aVH4sIAAAAAAAEAG2QTQvCMAyG78L+w9i9H1NBGFtB0IOgF0XwWruqga6dbef8+RZH/UADCYHk4X2TciudUTd+VHJVS+3hBNKm90ZpV0CVXbxvC0L6vsf9BBt7JmNKc3LYrHfiIhuOQDvPtZDZwLwI9xw7XHPPhdHecuEjPyV0RuY14L3lGUtGaVoOLqRd1Sy2Di8btzZnEFyV5GPhC9i1UgTPYhF0Uig0qCrztgt+yP/FvYZrF25ldIgchaRoGlpEY4nx1v3Bk1Ecfv+OPQCnicOSUgEAAA==
p352
aVH4sIAAAAAAAEAG2QQQuCQBCF74L/Qby7u1YQiApBHQS7JELXdd10YF1td81+fpaYRc1heDDz8d5MeOK6FTdaCJ6UXBq4AFfOvRFSBxC5tTFdgPEwDGhYo1ZVeEWIj8/HNGM1b6gHUhsqGXcn5k3o11ijkhrKWmkUZWbmN5hs8a4ElCvqxrblOOGUgqukjGep0aHRaVsBoyLEHwtfQNZxNmZm+9HHgUCCiFyj+jEP/r+YS7j2460xmcr3iE8K7ymXNtfi+4Pb1jz8/l38AJHje4JSAQAA
p353
aVH4sIAAAAAAAEAG2QTwuCQBDF74LfQby7u/aHQFQI6iDYJRG6buuWA+tqu2v28bPETGoOw4OZH+/NhEeua3GnZ8GTgksDF+DKeVRC6gAitzSmCTDuug51S1SrK14Q4uPTIc1YySvqgdSGSsbdgfkQ+j3WqKCGsloaRZkZ+RUmG7wtAOWKurFtOU44pOAqKeJRarSvdFpfgVER4q+FGZA1nPWZ2a73cSCQICLXqLbPg/8v5hJubX9rTIbyPeKvL95LTm2syfcHt61xOP9d/ARaAlKmUgEAAA==
p354
aVH4sIAAAAAAAEAG2QQQvCMAyF74P9h7H72k4FcWwDQQ8DvSiC19pWDXTdbKvz51sdVYfmEB4kH+8l+UaYRt7oQYqKC2XhCEJH91oqk0ERn61tM4y7rkPdGDX6hEeEpHi/Xm3ZWdQ0AWUsVUzEPfMmzGtsEKeWskZZTZn1/ASTKZ5zQDtN4zIMoijvUwhd8dJLg5a1WTUnYFTm+GthAGxbwVxmtnA+EWQKZBFbfXV58P/FnYLL1d1akr7ShJDZLHnKT/P18f3Bw8APh78rH5TKoCdSAQAA
p355
aVH4sIAAAAAAAEAG2QzQrCMBCE70LfIfTeJFpBKG1B0INQLxbBa0xiXUhTTVLr4xss8QfdwzKw+zGzm++k7dSNHZXcCKkdnEAadG+VthkU8dm5S0bIMAx4SHFnGjKjdEoO26rmZ9myBLR1THMZj8yLsM+xxYI5xjvtDOMu8HNCF2QpAO8Ni8toglA+ppBmI8ogLV63tuoa4Ezl5GPhC6gvkvvMfOV9EGQaVBE70/s85P/iXsO197eWdKxpQtNUJHMvExpaqLfvDx5NwvD7d+UDHQ28g1IBAAA=
p356
aVH4sIAAAAAAAEAG2QTwuCQBDF74HfQby7u6YQiAlBHQS7JEHXbd10YF1td80+fkuy/aHmMDyY+fHeTHbguhc3eha8qLk0cAGu/HsnpE5hHbTGDCnG0zShKUa9avCSkAif9mXFWt7REKQ2VDIezMyL0M+xRjU1lPXSKMqM4xNMVnhTAzoqGuTewvezOQVXRZ07qdGu02XfAKMiwx8LX0A1cGYzs6318SGVINaBUaPNg/8vHiVcR3trTuaKQhLHlzCxMiSuuXr7/uDewg2/f5c/ACBpSERSAQAA
p357
aVH4sIAAAAAAAEAG2QzQrCMBCE7wXfIfTeJGpBKG1B0ENBL0rBa0xjXUiTmkTr4xss8QfdwzKw+zGzm++E1fLGjlJUjVAOTiAMundS2QyK+OxcnxEyDAMe5liblswonZLDdrPnZ9GxBJR1THERj8yLsM+xxQ1zjGvlDOMu8CmhC7JsANeGxeUkQigfUwhTNWWQFq87u9EtcCZz8rHwBex7wX1mvvI+CDIFsoidufo85P9ireBy9beWdKxpQufpLEm9TGhood6+P/gkCsPv35UPRP4T+FIBAAA=
p358
aVH4sIAAAAAAAEAG2QQQvCMAyF7wP/w+h9bdWBMLaBoIeBXhTBa+3qDHTtbKvz51scVYfmEB4kH+8l+U5YLe/sJEVVC+XgDMLEj1Yqm0GBLs51GSF93+N+jrVpyIzSKTluN3t+ES1LQFnHFBdoYN6EfY0trpljXCtnGHeBTwldkGUN+GAYKidRHOdDCmGqugzS4nVrN7oBzmROvhZGwL4T3GfmK+8TQ6ZAFsiZm89D/i8eFFxv/taSDjVN6DxNk9TLhIYW6uP7g0+iMBz/rnwCQlR+a1IBAAA=
p359
aVH4sIAAAAAAAEAG2QTwvCMAzF74LfYey+tv4BYWwDQQ8DvSgDr7WLM9B1s63Wj291zCmaQ3iQ/HgvSXZgGnnjRwl5CcriCUEH91oqE2Manq1tY0qdc8TNSKMrOmVsQg/bzV6coeYRKmO5EhB2zJswr7EhJbdcNMpqLmzPzylb0GWJpNA8zMajIEi6FKDzMuulIevabJoKBZcJ/Vj4AvYtCJ9ZrLxPgLFCmYZWX30e+n+xUHi5+lsz1tUkYkxA9JRD62vw/cHHo374/bvsAefvcZ1SAQAA
p360
aVH4sIAAAAAAAEAG2QTQvCMAyG7wP/w9h9bacDYWwDQQ+CXhwDr7WLGui62Vbnz7c46gcaSAgkD++b5Dswnbzxg4R1A8riEUGH91Yqk2ERna3tM0qHYSDDjHT6RKeMJXS/3VTiDC2PURnLlYBoZF6EeY4NabjlolNWc2E9n1I2p4sGSa15VE6CMMxHF6DXTelbQ1at2XQnFFzm9GPhC6h6EM6zWDqdEDOFsoisvjo/9P9irfBydbeWbIwkdglx6tqY+eLjrfuDTwI//P5d+QB4OMWIUgEAAA==
p361
aVH4sIAAAAAAAEAG2QQQuCQBCF74H/Qby7qxYEokJQB8EuidB1WzcdWFfbXbOf35aYSc1heDDz8d5MdGKq5Xdy4SwtmdBwBSbtR8OFCiF2aq27EONhGNCwRq2scOB5Pj4fs5zWrCEuCKWJoMwZmQ+h3mOFSqIJbYWWhOqJ32Bvi3cloEISJ7FWth2NKZhMy2SSCh0albUVUMIj/LWwAPKOUZOZ7o2PDaEAHjta9iYP/r9YCLj15tbEG8t3TaDAfcm5TTX7/uDWahouf5c8AYRLWg5SAQAA
p362
aVH4sIAAAAAAAEAG2QQQuCQBCF74H/Qby7qyUEokJQB8EuidB1WzcdWFfbXbOf35aYSc1heDDz8d5MdGKq5Xdy4SwtmdBwBSbtR8OFCiF2aq27EONhGNCwQa2s8NrzfHw+ZjmtWUNcEEoTQZkzMh9CvccKlUQT2gotCdUTH2Bvi3cloEISJ7FWth2NKZhMy2SSCh0albUVUMIj/LWwAPKOUZOZ7o2PDaEAHjta9iYP/r9YCLj15tbEG8t3TaDAfcm5TTX7/uDWahouf5c8AYLhN51SAQAA
p363
aVH4sIAAAAAAAEAG2QQQuCQBCF74H/Qby7qxUFokJQB8EuidB1WzcdWFfbXbOf35aYSc1heDDz8d5MeGKq4Xdy4SwpmNBwBSbtR82FCiByKq3bAOO+71G/Qo0s8dLzfHw+phmtWE1cEEoTQZkzMB9CvccKFUQT2ggtCdUjv8beFu8KQLkkTmwtbDscUjCZFPEoFTrUKm1KoISH+GthBmQtoyYz3RsfGwIBPHK07Ewe/H8xF3DrzK2xN5TvmkAb9yWnNtbk+4Nbi3E4/138BL+Fw1pSAQAA
p364
aVH4sIAAAAAAAEAG2QQQuCQBCF74H/Qby7u1YQiApBHQS7JELXbV11YF1td81+fpaYSc1heDDz8d5McOa6EXd6FTzOuTRQAFf2oxZS+xA6lTGtj3Hf96jfoEaVeE2Ihy+nJGUVr6kLUhsqGXdG5kPo91ijnBrKGmkUZWbit5js8D4HlCnqRNbKtoMxBVdxHk1So2Otk6YERkWAvxYWQNpyNmRmh8HHBl+CCB2juiEP/r+YSbh1w60RGctzCWGF+5Jzm2r2/cGt1TRc/i56AuQ6x9RSAQAA
p365
aVH4sIAAAAAAAEAG2QwQrCMAyG7wPfoey+tlNBGFtB0IMwL4rgtXZVA1032875+BZH1aGBhEDy8f9JvpO2UXd+UnJTSe3gDNKgR620zaCIr861GSF93+N+hhtzIVNKU3LclntxlTVPQFvHtZDxwLwJ+xpbXHHHRaOd4cIFfk7ogiwrwAfDYzaJEMoHF9JsKhZai9e1LZsLCK5y8rUwAvatFN6zWHkdBJkGVcTOdN4P+b940HDr/K2MDpEmPqfJ3LcJDSXER/cHn0RhOP4dewKa7TdVUgEAAA==
p366
aVH4sIAAAAAAAEAG2QQQuCQBCF74H/Qby7qxkEokJQB8EuidB1WzcdWFfbXbOf35aYSc1heDDz8d5MdGKq5Xdy4SwtmdBwBSbtR8OFCiF2aq27EONhGNAQoFZWeO15Pj4fs5zWrCEuCKWJoMwZmQ+h3mOFSqIJbYWWhOqJ32Bvi3cloEISJ7FWth2NKZhMy2SSCh0albUVUMIj/LWwAPKOUZOZ7o2PDaEAHjta9iYP/r9YCLj15tbEG8t3TaDAfcm5TTX7/uDWahouf5c8Abr6GIBSAQAA
p367
aVH4sIAAAAAAAEAG2QTwuCQBDF74HfQby7q/0hEBWCOgh2SYSu27rpwLra7pp9/LbETGoOw4OZH+/NhCemGn4nF86SggkNV2DSftRcqAAip9K6DTDu+x71K9TIEi89z8fnY5rRitXEBaE0EZQ5A/Mh1HusUEE0oY3QklA98mvsbfGuAJRL4sTWwrbDIQWTSRGPUqFDrdKmBEp4iL8WZkDWMmoy073xsSEQwCNHy87kwf8XcwG3ztwae0P5rgm0cV9yamNNvj+4tRiH89/FT7xQdRNSAQAA
p368
aVH4sIAAAAAAAEAG2QQQuCQBCF70L/Qby7u5YgiApBHQS7FELXbd10YF1td81+fpaYSc1heDDz8d5MdOS6EXd6ETwtuDRwBa7sRy2kDiF2KmPaEOO+71G/QY0q8ZoQD58P2YlVvKYuSG2oZNwZmQ+h32ONCmooa6RRlJmJ9zEJ8LYAlCvqJCvLtqMxBVdpkUxSo32ts6YERkWEvxYWwKnlbMjMdoOPDaEEETtGdUMe/H8xl3DrhlsTMpbnEhL47kvObarZ9wdfWdNw+bvkCe0GdwRSAQAA
p369
aVH4sIAAAAAAAEAG2QQQuCQBCF74H/Qby7qxUEokJQB8EuidB1W1cdWFfbXbOf35aYSc1heDDz8d5MeGaq5Xdy5SwpmNBQApP2o+FCBRA5tdZdgPEwDGjYoFZWeO15Pr6c0ozWrCEuCKWJoMwZmQ+h3mOFCqIJbYWWhOqJ32Jvh/cFoFwSJ7ZWth2OKZhMiniSCh0blbYVUMJD/LWwALKOUZOZHoyPDYEAHjla9iYP/r+YC7j15tbYG8t3TaDSfcm5TTX7/uDWahoufxc/AWVLHppSAQAA
p370
aVH4sIAAAAAAAEAG2QQQuCQBCF74H/Qby7qxUIokJQB8EuidB1WzcdWFfbXbOf35aYSc1heDDz8d5MdGKq5Xdy4SwtmdBwBSbtR8OFCiF2aq27EONhGNCwQa2s8NrzfHw+ZjmtWUNcEEoTQZkzMh9CvccKlUQT2gotCdUTv8VegHcloEISJ7FWth2NKZhMy2SSCh0albUVUMIj/LWwAPKOUZOZ7o2PDaEAHjta9iYP/r9YCLj15tbEG8t3TaDAfcm5TTX7/uDWahouf5c8AYE0gdRSAQAA
p371
aVH4sIAAAAAAAEAG2QTwvCMAzF74LfYey+tlNBHNtA0MNAL4rgtXZxC3Sdtp3z41sc9Q+aQ3iQ/HgvSXdgWnnjJwlFCcriGUEH90Yqk2AW1tZeEkr7vif9lLS6ohPGYnrcbvaihoZHqIzlSkA4MC/CPMeGlNxy0SqrubCen1E2p8sSyUHzMB+PgiAdUoAuytxLQ9aN2bQVCi5T+rHwBewvIFxmsXI+ASYKZRZa3bk89P/iQeG1c7fmbKg4YvECopmTEfPN19v3Bx+P/PD7d/kDyMmpzFIBAAA=
p372
aVH4sIAAAAAAAEAG2QTwvCMAzF78K+w9h9baeCMLaBoIfBvCiC19jVGeg6bTvnx7c46h80h/Ag+fFekm2F6eQNjlKUtVAWTyh0eG+lMinm0dnaS0rpMAxkmJFON3TKWEIPm2rHz6KFGJWxoLiIRuZFmOfYkBos8E5ZDdx6fk7Zgi5rJHsNURFMwjAbUwhd1oWXhqxbU3UNcpAZ/Vj4AnYXwV1mvnI+IaYKZR5Z3bs89P/iXuG1d7cWbKwkZgmweO5kzHzz9fb9wYOJH37/rngAhnmmCVIBAAA=
p373
aVH4sIAAAAAAAEAG2QzQrCMBCE74LvEHrPT1WQlrYg6EHQi6XgNaZRF9JUk2h9fIMlatE9LAO7HzO72U7aVt35Qcl1LbWDI0iDHo3SNoU8Ojt3SSntuo50U9KaE50wFtP9dlOKs2w4Bm0d10JGPfMm7GtsSc0dF612hgsX+Bllc7qogVSGR8V4hFDWp5BmXRdBWrJq7KY9geAqo18LA6C8SOEzi6X3QZBqUHnkzM3nof8XKw3Xm7+1YH3FmMVJgmdeYhZaqI/vDz4eheHwd8UTX1Xe8VIBAAA=
p374
aVH4sIAAAAAAAEAG2QTwvCMAzF74LfYey+tlNBHNtA0MNAL4rgtXZxC3Sdtp3z41sc9Q+aQ3iQ/HgvSXdgWnnjJwlFCcriGUEH90Yqk2AW1tZeEkr7vif9lLS6ohPGYnrcbvaihoZHqIzlSkA4MC/CPMeGlNxy0SqrubCen1E2p8sSyUHzMB+PgiAdUoAuytxLQ9aN2bQVCi5T+rHwBewvIFxmsXI+ASYKZRZa3bk89P/iQeG1c7fmbKg4YvECopmTEfPN19v3Bx+P/PD7d/kDyMmpzFIBAAA=
p375
aVH4sIAAAAAAAEAG2QzQrCMBCE7wXfofSen6oglrYg6EHQi6XgNaZRF9JUk2h8fIMlatE9LAO7HzO7+U6YTt7ZQYp1I5SFIwgdP1qpTAZFcrb2khHinMNugjt9ImNKU7Lfbip+Fi1DoIxlioukZ96EeY0NbphlvFNWM24DPyV0RhYN4FqzpBxFcZz3KYReN2WQBq9as+lOwJnMydfCAKgugvvMfOl9YsgUyCKx+ubzkP+LtYLrzd9a0r5SRNP5AU29RDS0UB/fH3wUheHwd+UT8NKG0VIBAAA=
p376
aVH4sIAAAAAAAEAG2QTwvCMAzF78K+w9h9baeCMLaBoIfBvCiC19jVGeg6bTvnx7c46h80h/Ag+fFekm2F6eQNjlKUtVAWTyh0eG+lMinm0dnaS0rpMAxkmJFON3TKWEIPm2rHz6KFGJWxoLiIRuZFmOfYkBos8E5ZDdx6fk7Zgi5rJHsNURFMwjAbUwhd1oWXhqxbU3UNcpAZ/Vj4AnYXwV1mvnI+IaYKZR5Z3bs89P/iXuG1d7cWbKwkZgmweO5kzHzz9fb9wYOJH37/rngAhnmmCVIBAAA=
p377
aVH4sIAAAAAAAEAG2QQQvCMAyF7wP/w9h9becEYcyBoIfBvCiC19hVDXSdtp3z51scVYfmEB4kH+8l+VaYVt7hKEVZC2XxhEKHj0Yqk+Eiulh7zSjt+570KWn1mU4ZS+hhU+34RTQQozIWFBfRwLwJ8xobUoMF3iqrgVvPzyib02WNZK8hKiZBGOZDCqHLuvDSkHVjqvaMHGROvxZGwO4quMvMV84nxEyhXERWdy4P/b+4V3jr3K0FGyqJWQJpPHMyZr75+vj+4JPAD8e/K56FrBBAUgEAAA==
p378
aVH4sIAAAAAAAEAG2QQQuCQBCF70H/Qby7u1ZQiApBHQK7JELXbZ1sYF1rd81+fpaYSc1heDDz8d5MeABTyTs/SdjloCyeEbTzKKUyAUbuxdprQGnTNKSZk0oXdMaYT4/7JBUXKLmHyliuBLgd8yHMe2xIzi0XlbKaC9vzC8qWdJ0jyTR34+nEccIuBehdHvfSkG1pkqpAwWVIvxZGQHoF0WYWm9bHwUChjFyr6zYP/b+YKbzV7a0x68r3mL8C7yWH1tfg+4NPJ/1w/Lv4CTwfmyZSAQAA
p379
aVH4sIAAAAAAAEAG2QQQuCQBCF70H/Qby7u1oQiC4EdRDsUgRdt3XVgXW13TX7+VliJjWH4cHMx3sz0VGYWt7ZVYokE8pCDkI7j0oqE0LsltY2IcZd16FuhWpd4IAQH18O6YmXomIeKGOZ4sIdmA9h3mODMmYZr5XVjNuRX2OywdsM0Fkzly4XjhMNKYROMjpKg/aVSesCOJMR/lqYAadG8D4z3/U+DoQKZOxa3fZ58P/Fs4Jb299KyVC+R4J87b3k1MaafH/w5WIczn9Hn/iVaYNSAQAA
p380
aVH4sIAAAAAAAEAG2QzQrCMBCE74LvUHJvkvqDUNqCoAehXhTBa5rEupAmmqTWx7daqhbdwzKw+zGzm+ykM+rGCiU3QmoPJ5A2uFdKuxhSdPb+EhPSNA1uptjYkkwojchxm+/5WVYsBO0801yijnkT7jV2WDDPuNHeMu57fkbogiwF4INlKBuPgiDpUki7EVkvHV5XLjclcKYS8rUwAPYXydvMfNX6BBBrUCnytm7zkP+LBw3Xur01o11FIY2KefiUn9bXx/cHH4/64fB32QMCaOBhUgEAAA==
p381
aVH4sIAAAAAAAEAG2QQQuCQBCF74L/Qby7u1YQiQpBHQS7JELXbd1yYF1td81+fpaYSc1heDDz8d5MeOS6Fnd6FjwpuDRwAa6cRyWkDiByS2OaAOOu61C3RLW64gUhPj4d0oyVvKIeSG2oZNwdmA+h32ONCmooq6VRlJmRX2GyxtsCUK6oG9uW44RDCq6SIh6lRvtKp/UVGBUh/lqYAVnDWZ+Z7XofBwIJInKNavs8+P9iLuHW9rfGZCjfI/5l473k1MaafH9w2xqH89/FT6VKFS1SAQAA
p382
aVH4sIAAAAAAAEAG2QywrCMBBF94L/ULpvkvpAKG1B0EVBN4rgdkxjO5CmmqTWzzdY4gOdxXBh5nDvTLoTppU3OElRlEJZPKPQwb2RyiSYhbW1l4TSvu9JPyWtruiEsZget5s9r0UDESpjQXERDsyLMM+xISVY4K2yGrj1/IyyBV2WSA4awnw8CoJ0SCF0UeZeGrJuzKatkINM6cfCF7C/CO4y85XzCTBRKLPQ6s7lof8XDwqvnbs1Z0PFEYthHs2cjJhvvt6+P/h45Iffv8sfgwZ901IBAAA=
p383
aVH4sIAAAAAAAEAG2QQQuCQBCF74L/Qby7u1ZQiApBHQS7JELXbd1yYF1td81+fpaYSc1heDDz8d5MeOS6Fnd6FjwpuDRwAa6cRyWkDiByS2OaAOOu61C3RLW64gUhPj4d0oyVvKIeSG2oZNwdmA+h32ONCmooq6VRlJmRX2GyxtsCUK6oG9uW44RDCq6SIh6lRvtKp/UVGBUh/lqYAVnDWZ+Z7XofBwIJInKNavs8+P9iLuHW9rfGZCjfI/7m4r3k1MaafH9w2xqH89/FTz/KLW9SAQAA
p384
aVH4sIAAAAAAAEAG2QzQrCMBCE74LvUHpvklZFKG1B0INQL4rgNaZpu5AmNUmNj2+11B90D8vA7sfMbrLnRokrPQu+Lbi0UALX3q0R0sSQ+rW1bYyxcw65GVK6whEhIT7t8gOreUMDkMZSybg/MC/CPMcGFdRSpqTVlNmRn2OyxKsC0FFTP5tOPC8ZUnC9LbJRGrRpTK4qYFQk+GPhCzi0nPWZ2br38SCWIFLf6q7Pg/8vHiVcuv7WjAwVBiQqF8FDvttYb98ffDoZh9+/y+7GJCsNUgEAAA==
p385
aVH4sIAAAAAAAEAG2QQQvCMAyF74L/YfS+tlNRGNtA0IMwL4rgtWvrDHSttp3z5zsdU4fmEB4kH+8lyU46o26sUHIjpPZwAmmDe6W0iyFFZ+8vMSFN0+Bmio0tyYTSiBy3+Z6fZcVC0M4zzSXqmDfhXmOHBfOMG+0t477nZ4QuyFIAPliGsvEoCJIuhbQbkfXS4XXlclMCZyohXwsDYH+RvM3MV61PALEGlSJv6zYP+b940HCt21sz2lUU0qiYh0/5aX19fH/w8agfDn+XPQABvVYoUgEAAA==
p386
aVH4sIAAAAAAAEAG2Q0QuCMBDG34P+B/HdbVYQiApBPQT1kgS9zjn1YE7bVuvPz5JlUvdwfHD34/vu4hPXrbjTXPB9waWBErjyHo2QOoLEr43pIoyttcguUasqvCAkxJfjIWM1b2gAUhsqGfcH5kPo91ijghrKWmkUZcbxK0zWeFMAOivqp/OZ58VDCq72ReqkRrtGH9oKGBUx/lqYAFnHWZ+ZbXsfDyIJIvGNuvV58P/Fs4Trrb81JUOFAQnLPHjJsbkafX/w+cwNp79LnwrNTQ1SAQAA
p387
aVH4sIAAAAAAAEAG2QTwvCMAzF74LfYey+tlNBGdtA0MNAL4rgNXZ1C3Sdtp3z41sc9Q+aQ3iQ/HgvSXfCtPIGJymKUiiLZxQ6uDdSmQSzsLb2klDa9z3pp6TVFZ0wFtPjdrPntWggQmUsKC7CgXkR5jk2pAQLvFVWA7een1E2p8sSyUFDmI9HQZAOKYQuytxLQ9aN2bQVcpAp/Vj4AvYXwV1mvnI+ASYKZRZa3bk89P/iQeG1c7fmbKg4YjEsopmTEfPN19v3Bx+P/PD7d/kD8OWVoFIBAAA=
p388
aVH4sIAAAAAAAEAG2QTwvCMAzF78K+w9h9baeCMLaBoIfBvCiC19jVGeg6bTvnx7c46h80h/Ag+fFekm2F6eQNjlKUtVAWTyh0eG+lMinm0dnaS0rpMAxkmJFON3TKWEIPm2rHz6KFGJWxoLiIRuZFmOfYkBos8E5ZDdx6fk7Zgi5rJHsNURFMwjAbUwhd1oWXhqxbU3UNcpAZ/Vj4AnYXwV1mvnI+IaYKZR5Z3bs89P/iXuG1d7cWbKwkZglAPHcyZr75evv+4MHED79/VzwAYgY5R1IBAAA=
p389
aVH4sIAAAAAAAEAG2QQQvCMAyF74L/Yey+tupAGHMg6GEwL4rgteuiBrputp3z51scVYfmEB4kH+8l6R5MI++8lJBXoCyeEXTwqKUyCa7Cq7VtQmnf96RfkEZf6JyxGT3tioO4Qs0jVMZyJSAcmDdhXmNDKm65aJTVXFjPx5Qt6bpCctQ8zKaTIEiHFKDzKvPSkG1tiuaCgsuUfi2MgEMLwmUWG+cTYKJQrkKrO5eH/l88Krx17taMDTWLWFxCFDsZMd98fXx/8OnED8e/y54FbS03UgEAAA==
p390
aVH4sIAAAAAAAEAG2QTwuCQBDF74HfQby7u5YQiApBHQS7JEHXbd10YF1td80+fkuy/aHmMDyY+fHeTHrguhc3eha8qLk0cAGu/HsnpE4gC1pjhgTjaZrQtEK9avCSkAif9mXFWt7REKQ2VDIezMyL0M+xRjU1lPXSKMqM42NM1nhTAzoqGuTewvfTOQVXRZ07qdGu02XfAKMixR8LX0A1cGYzs6318SGRILLAqNHmwf8XjxKuo701J3NFIYkZCWMrQ+Kaq7fvD+4t3PD7d/kDwIPE7FIBAAA=
p391
aVH4sIAAAAAAAEAG2QzQrCMBCE70LfofTeJNWCWNqAoIeCXhTBa0yiLqRpTaL18Q2W+IPuYRnY/ZjZLTfSturGDkrWQmoHR5AmvjdK2wKq5OxcV2Dc9z3qJ6g1JzwmJMP79WrLz7JhKWjrmOYyGZgXYZ9jiwRzjLfaGcZd4HNMpnguAO0MS2g0iuNySCFNLWiQFi0bu2pPwJkq8cfCF7DtJPeZ+cL7xFBoUFXizNXnwf8XdxouV38rJUNlKckPszT3MiWhhXr7/uDRKAy/f0cfkvFaClIBAAA=
p392
aVH4sIAAAAAAAEAG2QzQrCMBCE74LvUHpvkmpBKG1B0EOhXhTBa5pGXUiTmkTj4xss8QfdwzKw+zGzW2y5UeJGW8HrjksLR+A6uvdCmhzK+GztkGPsnENujpQ+4RkhKT5smh07854mII2lkvF4ZF6EeY4N6qilTEmrKbOBzzBZ4GUHaK9pXE0nUVSMKbiuuypIg9a9adQJGBUF/lj4AnYDZz4zW3mfCHIJooytvvo8+P/iXsLl6m+tyFhpQrK2TTIvExJaqLfvDz6dhOH376oHPXYCKlIBAAA=
p393
aVH4sIAAAAAAAEAG2QTwuCQBDF74HfQby7u5YQiApBHQK7JELXbV11YF1rd80+fkuy/aHmMDyY+fHeTHrkehA3ehZ8X3NpoAGu/HsvpE4gCzpjLgnG0zShaYUG1eIlIRE+HYqSdbynIUhtqGQ8mJkXoZ9jjWpqKBukUZQZx8eYrPGmBlQpGuTewvfTOQVX+zp3UqNdr4uhBUZFij8WvoDywpnNzLbWx4dEgsgCo0abB/9frCRcR3trTuaKQhI1TRhbGRLXXL19f3Bv4Ybfv8sf34oJclIBAAA=
p394
aVH4sIAAAAAAAEAG2QywrCMBBF90L/oXSfR1UQShsQdCHoRhHcxjTqQJrUJLV+vsESH+gshgszh3tnyq10Rt34UclVLbWHE0ib3hulXQFVdvG+LQjp+x73E2zsmYwpzclhs96Ji2w4Au0810JmA/Mi3HPscM09F0Z7y4WP/JTQGZnXgPeWZywZpWk5pJB2VbMoHV42bm3OILgqycfCF7BrpQiZxSL4pFBoUFXmbRfykP+Lew3XLtzK6FA5oiESmgaJaGyx3r4/eDKKw+/fsQe2/BtzUgEAAA==
p395
aVH4sIAAAAAAAEAG2QQQuCQBCF74L/Qby7u1kQiC4EdRDqkghdt3W1gXW13S37+VliJjWH4cHMx3sz8VGYRt7ZWYq0EMpCCUJ7j1oqE0HiX6xtI4y7rkPdEjW6wiEhC3w67DN+ETULQBnLFBf+wHwI8x4bVDDLeKOsZtyO/AqTNd4UgHLNfOo6nhcPKYROCzpKg3a12TcVcCZj/LUwA7JW8D4z3/Y+HkQKZOJbfevz4P+LuYLrrb+VkqEWAQnDMnjJqY01+f7grjMO57+jT/Gp2VNSAQAA
p396
aVH4sIAAAAAAAEAG2QQQuCQBCF74L/Qby7u1oQiC4EdRDskgRdt3XTgXW13S37+VliJTWH4cHMx3szyV6YVt7YSYqsFMrCGYT27o1UJobUr63tYoz7vkf9ArW6whEhIT7u8oLXomEBKGOZ4sIfmTdhXmODSmYZb5XVjNuJX2KywusS0EEzn7qO5yVjCqGzkk7SoG1j8rYCzmSCvxZmQNEJPmTmm8HHg1iBTH2rr0Me/H/xoOByHW6lZKwwINGCBE/5aVN9fH9w15mG89/RBzeShsFSAQAA
p397
aVH4sIAAAAAAAEAG2QywrCMBBF90L/IXSfR7WglLYg6KKgG0VwG9OoA2lak2j9fIMlPtBZDBdmDvfO5BtpW3XjByWrWmoHR5AG3RulbQZFfHauyyjt+570E9KaEx0zltD9erUVZ9lwDNo6roWMB+ZF2OfYkpo7LlrtDBcu8CllUzqvgewMj8tohFA+pJCmqssgLVk2dtWeQHCV04+FL2DbSeEzi4X3QZBpUEXszNXnof8XdxouV39ryYZKMEvFDKdeYhZaqLfvDx6NwvD7d+UDth/3RVIBAAA=
p398
aVH4sIAAAAAAAEAG2QTwvCMAzF78K+w9h9bdWBMLaBoIeBXhyC19jVGei62Vbnx7c46h80h/Ag+fFeku2E6eQNjlKUtVAWTyh0eG+lMinm0dnaPqV0GAYyzEmnGzpjbEoP203Fz6KFGJWxoLiIRuZFmOfYkBos8E5ZDdx6PqFsQZc1kr2GqAgmYZiNKYQu68JLQ9at2XQNcpAZ/Vj4AqpecJeZr5xPiKlCmUdWX10e+n9xr/BydbcWbKxpzBIOceJkzHzz9fb9wYOJH37/rngAJPxbolIBAAA=
p399
aVH4sIAAAAAAAEAG2QzQrCMBCE70LfofTeJNWCWGpA0INQL4rgNSbRLqRpTaL18Q2W+IPuYRnY/ZjZLbfSturGjkquhdQOTiBNfG+UtgXMk9q5rsC473vUT1BrznhMSIYPm2rHa9mwFLR1THOZDMyLsM+xRYI5xlvtDOMu8DkmU7wQgPaGJTQaxXE5pJBmLWiQFq0aW7Vn4EyV+GPhC9h1kvvMfOl9Yig0qHnizNXnwf8X9xouV38rJUNlqQ80S3MvUxJaqLfvDx6NwvD7d/QBH4sCxVIBAAA=
p400
aVH4sIAAAAAAAEAG2QzQrCMBCE74LvUHpvErUilBoQ9FCoF0vBa0yiLqSpJqn18Q2W+IPuYRnY/ZjZzXfSturGDkoWQmoHR5AmujdK2wyW8dm5S4Zx3/eon6HWnPCUkAneb8uKn2XDEtDWMc1lPDAvwj7HFgnmGG+1M4y7wKeYLPBKAKoNi+l4FEX5kEKaQtAgLdo0tmxPwJnK8cfCF1BdJPeZ+dr7RJBpUMvYmc7nwf8Xaw3Xzt9KyVCThJC5SFIvExJaqLfvDz4eheH37+gDrPnYt1IBAAA=
p401
aVH4sIAAAAAAAEAG2QTwuCQBDF74HfQby7u5oQiAlBHQS7JEHXdd1yYF1td80+fkuy/aHmMDyY+fHeTHbguhc3WgteNFwaOANX/r0TUqewDlpjhhTjaZrQtES9uuCYkAif9mXFWt7REKQ2VDIezMyL0M+xRg01lPXSKMqM4xNMVnjTADoqGuTewvezOQVXRZM7qdGu02V/AUZFhj8WvoBq4MxmZlvr40MqQawDo0abB/9fPEq4jvbWnMwVhSSu6zCxMiSuuXr7/uDewg2/f5c/ACAIW0pSAQAA
p402
aVH4sIAAAAAAAEAG2Q0QuCMBDG34P+B/HdbZURiQpBPQT2kgi9rrn0YM7aZvbnN5JVUvdwfHD34/vu4iPXrbjTs+D7kksDF+DKezRC6ggSvzbmGmHc9z3qF6hVFZ4TMsOnQ5azmjc0AKkNlYz7A/Mm9GusUUkNZa00ijLj+BCTFd6UgApF/XQ68bx4SMHVvkyd1GjX6KytgFER46+FEZBfObOZ2db6eBBJEIlvVGfz4P+LhYRbZ29NyVCzgJD1MgitDIhrrj6+P/h04obj36VPNxHX8VIBAAA=
p403
aVH4sIAAAAAAAEAG2QzQrCMBCE70LfofTeJK2CUNqCoIeCXiyC15jEdiFNaxKtj2+wxB90D8vA7sfMbr4Xppc3epKi4kJZOIPQ4b2TymRQRK21Q4bxOI5onKNeNzglJMHH3bZmrehoDMpYqpiIJuZFmOfYIE4tZb2ymjLr+QUmS7zigA6aRmUwC8N8SiF0xUsvDdp0Zts3wKjM8cfCF1APgrnMbO18QsgUyCKy+ury4P+LBwWXq7u1JFMlMUlPPF44GRPffL19f/Bg5offvysfJqI22VIBAAA=
p404
aVH4sIAAAAAAAEAG2Q0QuCMBDG34P+B/HdbZUUiQpBPQT2kgi9rrn0YM7aZvbnN5JVUvdwfHD34/vu4iPXrbjTs+D7kksDF+DKezRC6ggSvzbmGmHc9z3qF6hVFZ4TMsOnQ5azmjc0AKkNlYz7A/Mm9GusUUkNZa00ijLj+BCTFd6UgApF/XQ68bx4SMHVvkyd1GjX6KytgFER46+FEZBfObOZ2db6eBBJEIlvVGfz4P+LhYRbZ29NyVCzgJD1MgitDIhrrj6+P/h04obj36VPNMRhuFIBAAA=
p405
aVH4sIAAAAAAAEAG2QTwvCMAzF78K+w9h9bacDYWwDQQ+CXhwDr7WLGui62Vbnx7c46h80h/Ag+fFeku/AdPLGDxLWDSiLRwQd3lupTIZFdLa2zygdhoEMM9LpE50yltD9dlOJM7Q8RmUsVwKikXkR5jk2pOGWi05ZzYX1fErZnC4aJLXmURlMwjAfU4BeN6WXhqxas+lOKLjM6cfCF1D1IFxmsXQ+IWYKZRFZfXV56P/FWuHl6m4t2VhJzKbA4tTJmPnm6+37gwcTP/z+XfkAQjVtZVIBAAA=
p406
aVH4sIAAAAAAAEAG2QTwvCMAzF74N9h7H72voHlDEHgh4GelEEr7GrGui62XbOj29xVB2aQ3iQ/HgvyXbC1PIOJymKUiiLZxQ6elRSmRQX8dXaJqW06zrSTUitL3TM2Iget5s9v4oKElTGguIi7pk3YV5jQ0qwwGtlNXDr+SllM7oskRw0xHkYRFHWpxC6KHMvDVlXZlNfkIPM6NfCANg3grvMfOV8IkwVykVsdevy0P+LB4W31t2as75GCWMwT6ZOJsw3Xx/fHzwM/HD4u/wJ1fM2XVIBAAA=
p407
aVH4sIAAAAAAAEAG2QzQrCMBCE74LvUHpvklZBLG1B0INQL4rgNSaxXUjTmqTWxzdY4g+6h2Vg92NmN9sL08obPUux5UJZuIDQwb2RyqSQh7W1XYrxMAxomKFWVzghJManXXlgtWhoBMpYqpgIR+ZFmOfYIE4tZa2ymjLr+TkmC7zigI6ahsV0EgTZmELoLS+8NGjTmLKtgFGZ4Y+FL+DQCeYys7XzCSBVIPPQ6t7lwf8Xjwquvbu1IGPFEUnOy2juZER88/X2/cGnEz/8/l3xAI+PA2pSAQAA
p408
aVH4sIAAAAAAAEAG2QQQvCMAyF7wP/w9h9bZ0DYcyBoIeBXpSB19hVDXTdbKvz51scVYfmEB4kH+8l+U6YVt7hKEVZC2XxhEKHj0Yqk+EiuljbZZT2fU/6GWn1mSaMTelhu9nzi2ggRmUsKC6igXkT5jU2pAYLvFVWA7eeTymb02WNpNIQFZMgDPMhhdBlXXhpyLoxm/aMHGROvxZGwL4T3GXmK+cTYqZQLiKrby4P/b9YKbze3K0FG2oaswSSOHUyZr75+vj+4JPAD8e/K56VIcYTUgEAAA==
p409
aVH4sIAAAAAAAEAG2QzQrCMBCE70LfofTeJK2CUNqCoIeCXiyC15jEdiFNaxKtj2+wxB90D8vA7sfMbr4Xppc3epKi4kJZOIPQ4b2TymRQRK21Q4bxOI5onKNeNzglJMHH3bZmrehoDMpYqpiIJuZFmOfYIE4tZb2ymjLr+QUmS7zigA6aRmUwC8N8SiF0xUsvDdp0Zts3wKjM8cfCF1APgrnMbO18QsgUyCKy+ury4P+LBwWXq7u1JFMlMUn5Ml44GRPffL19f/Bg5offvysfYHGtuVIBAAA=
p410
aVH4sIAAAAAAAEAG2QTwvCMAzF74LfYey+ttOBMLaBoAdBLw7Ba+zqFui62Vbnx7c46h80h/Ag+fFeku2F6eQNTlJsKqEsnlHo4N5KZVLMw8baPqV0GAYyzEmnazpjLKbH3bbkjWghQmUsKC7CkXkR5jk2pAILvFNWA7eeTyhb0GWF5KAhLKaTIMjGFEJvqsJLQ9at2XY1cpAZ/Vj4AspecJeZr5xPgKlCmYdWX10e+n/xoPBydbcWbKw4YjOYR4mTEfPN19v3B59O/PD7d8UDq5CEnVIBAAA=
p411
aVH4sIAAAAAAAEAG2Q0QuCMBDG34P+B/HdbZVUiApBPQT2kgi9rrn0YM7aZvbnN5JVUvdwfHD34/vu4iPXrbjTs+D7kksDF+DKezRC6ggSvzbmGmHc9z3qF6hVFZ4TMsOnQ5azmjc0AKkNlYz7A/Mm9GusUUkNZa00ijLj+BCTFd6UgApF/XQ68bx4SMHVvkyd1GjX6KytgFER46+FEZBfObOZ2db6eBBJEIlvVGfz4P+LhYRbZ29NyVCzgJD1MgitDIhrrj6+P/h04obj36VPLpuOeVIBAAA=
p412
aVH4sIAAAAAAAEAG2QzQrCMBCE7wXfofTeJNWCUNqCoAehXpSC15jEdiFNNUmtj2+wxB90D8vA7sfMbr4Xppc3epJiy4WycAahw3snlcmgiFprLxnG4ziicYF63eA5IQk+7qoDa0VHY1DGUsVENDEvwjzHBnFqKeuV1ZRZz6eYLPGKA6o1jcpZEIb5lELoLS+9NGjTmapvgFGZ44+FL+BwEcxlZmvnE0KmQBaR1YPLg/8v1gqug7u1JFMlMUkTHqdOxsQ3X2/fH3wW+OH378oHUN3pRlIBAAA=
p413
aVH4sIAAAAAAAEAG2RXU+DMBSG75fsPyxc7K6UL6FuSMIEExJ3s2XGO9O1h61JKQidmBj/u7CFKerNSc/H8/ZtT7iBppRvdC8h46C0yAXUs/dCqmYh7oyj1tUC47ZtzdY1y/qAHcuy8fP6ccuOUFAkVKOpYmBcmCvRnNuNyammrFS6pkwPvIetAMdcmLuaGtF0MpuFFxdQZzyKq+KJyhOE+EdxNLStgHU+WdJpR3Opl5uy1C+phKJ7wPygl30t01D0549V6iZOEjvIu3nogn1vIRLHCUos3yaul96uiP3ZE3hAzslvzW87o+v/NbZT4vXU/WdE/CAgbuAhP88JssCnyAbfQwxcEgQ833OH/BW+4tPJ0BzvJ/oCntwyIrYBAAA=
p414
aVH4sIAAAAAAAEAG2RXWuDMBSG7wv9D+JF72L8jE3rBJkWhO2mpWN3I43HNuDXNJ2Dsf++2GI3t92E5Jw8b54kwRa6unhjhwLSDCopcgGt9l4WVbcSd/pJymaFcd/3Ru8YdXvEtmla+PnxYcdPUDIkqk6yioN+ZW5Ed2l3RsYk43UlW8blyLvY9HGUCWPfMj2czzQtuFpAm2Zh1JRPrDhDgH8UJ5t2DXDlyWOVHS4Kud7WtXxJCijVBRZHuR5qqYRymH9QEt+bShptzDhBLvE3iFpqsB2bJq5P4ihOPgcCj8hl8TvzW2dy/L9i+0q8ntV7huTg5blLAdmuuUSULh1EuE8R9zwfLOJQ6nh/g2/4fDY2p/8TfgHXSuz4tgEAAA==
p415
aVH4sIAAAAAAAEAG2Ry26DMBBF95HyD4hFdsY8jUkoEgIqIbWbRKm6q1wzJJZ4FZxSqeq/FxKRlLa78VyfO9cefwtdXbyz1wLSDCopcgGt8lEWVbcWd+pRymaNcd/3Wm9pdXvApq4b+PnxYcePUDIkqk6yioN6Ya5Ed5Y7LWOS8bqSLeNy4m2suzjMhLZvmRosF4riX1JAm2ZB2JRPrDiBj380Z5d2DfAhJ48H72BVyM22ruVLUkA5PGB1kJuxl0oox/rTM2MaUTdC9F53kZ0kFFHiEBRGia1HcWQnnvU1EnhCzoffnrc4s/H/BttX4u00/GcATkYoIR7ixCLIyl2CDNfIkem43LA85jgW/DW+4svFJM73E3wDRKHZabYBAAA=
p416
aVH4sIAAAAAAAEAG2RX2uDMBTF3wv9DuJD32Ji1EZaJ7jqQNheWjr2NmJybQX/TdM5GPvu0xbbue3t5p78zj3J9bbQVvk7T3KIJZQqSzNotI8iL9tVdqcflapXGHddZ3SWUTUHTAkx8cvT404coeAoK1vFSwH6hbkS7VluDckVF1WpGi7UyNuYMBzIzNg3XPfnM03zLimgiaUf1MUzz0/g4R/NyaVdDaLPKcLe21/kar2tKvUa5VD0D1gc1HroxQqKof6MAsZCx3FQQJYE2eH9Erm2xdCGkA2xlvSB0ehrIPCInA+/PW9xJuP/DbYvs7dT/58+M92EOFyihHKOXJMSJFOXIgmWAEKdVIjkr/EVn89Gcbof/xv9EkCVtgEAAA==
p417
aVH4sIAAAAAAAEAG2QywrCMBBF9wX/oXSfR6sglLYg6KKgG6XgNqaxDqSpJtH4+QZLfKCzGC7MHO6dKbbCDPLGDlLUrVAWjiB0fO+lMjmUycnac06Icw67KR50RzJKU7LfrHf8JHqGQBnLFBfJyLwI8xwb3DLL+KCsZtwGfkbonCxawI1mSTWJ4rgYUwhdt1WQBq96sx464EwW5GPhC9idBfeZ+dL7xJArkGVi9dXnIf8XGwWXq7+1omOliGbTFM28RDS0UG/fH3wSheH376oH56oZZFIBAAA=
p418
aVH4sIAAAAAAAEAG2RXWuDMBSG7wv9D+JF72Lid9I6wWIHwnbT0rG7kcVjK2h0ms7B2H+fttjObTeHnI/nzZucYAttVbzz1wKSFKTKsxwa7aMsZLvM7/SjUvUS467rjM42quaALUJM/Pz4sBNHKDnKZau4FKBfmCvRntutkXLFRSVVw4UaeQcTH0dpbuwbrofzmaYFFxfQJGkY1eUTL04Q4B/FydCuBtH7FHGvHS4KtdpWlXrZFFD2D1gc1GqoJQrK4fxJY0JtavvIdImPHDOKEV0ThiyPRdHavnfNDfkaCDwi5+S35s3O5Pp/je1l/nbq/zO0QHjUZRlimecgy/JTRDnrA7FTW3DKHG79Fb7i89nYnO4n/AY3/yrLtgEAAA==
p419
aVH4sIAAAAAAAEAG2RX0+DMBTF35fsOxAe9lZaaIuwIQnsT0KiL1tmfDOldBtJKQidmBi/u7CFKerb7T39nXvaG2xFU8o3lkqRZELp/JCL2ngvpGrm+b150rqaQ9i2rdViq6yP0EHIhs+PDzt+EgUDuWo0U1yYV+ZGNBe5sTKmGS+VrhnXA08guoNRllv7mpnhdGIYwTWFqJMsjKriicmzCOCP5ujSrhK8y8lXnXc4k3qxLUv9spai6B4wO+pF30u0KPr6I3ZwjOkmBnS58QHBmAIPRRQ4th+t6XLlxij+7Ak4IJfDb8/vOKPx/wbbq/z13P1niJzUZannAkR9G7iZfQCMcA8QnxDCkOdhx/5rfMOnk0Ec7yf8Ao3T6/+2AQAA
p420
aVH4sIAAAAAAAEAG2QQQuCQBCF74H/Qby7qykEokJQB8EuidB1WzcdWFfbXbOf35ZYSb3DY2DmY95MfGSq4zdy5iyrmNBwASbte8uFiiBxGq37CONxHNEYoE7WeO15Pj4d8oI2rCUuCKWJoMyZmDehXm2FKqIJ7YSWhOqZD7G3wdsKUCmJk1or246nFExmVTqXCu1blXc1UMJj/DWwAIqeUZOZ7sweGyIBPHG0HEwe/H+wFHAdzK2pN8l3jQVuaPxZTTbrs/cHt1Zzc/m79AG+A5oaUgEAAA==
p421
aVH4sIAAAAAAAEAG2QTQvCMAyG78L+w9h9bacTYcyCoAdhXhTBa22rC3TdbKvz51sc9QMNJASSh/dNyq20rbqxo5JrIbWDE0gT3xulbQHzpHauKzDu+x71E9SaMx4TkuHDptrxWjYsBW0d01wmA/Mi7HNskWCO8VY7w7gLfI7JDC8EoL1hCY1GcVwOLqRZCxpai1aNrdozcKZK/LHwBew6yb1nvvQ6MRQa1Dxx5ur94P+Lew2Xq7+VkiGy1Oc0zX2bklBCvHV/8GgUht+/ow+i9hhIUgEAAA==
p422
aVH4sIAAAAAAAEAG2Q0QuCMBDG34X+B/HdbZYQiApBPQT2Ugi9zrn0YM7aZvbnN5JVUvdwfHD34/vu0iPXvbjTSvB9zaWBC3DlPzohdQJZ0BpzTTAexxGNK9SrBi8JifD5UJxYyzsagtSGSsaDiXkT+jXWqKaGsl4aRZlxfIzJGm9qQKWiQb7wfD+dUnC1r3MnNdp1uugbYFSk+GthBpyunNnMbGt9fEgkiCwwarB58P/FUsJtsLfmZKooJHFUhbGVIXHN1cf3B194bjj/Xf4EVneE1VIBAAA=
p423
aVH4sIAAAAAAAEAG2Q0QuCMBDG34P+B/HdbZUgiQpBPQT2kgi9rrn0YM7aZvbnN5JVUvdwfHD34/vukiPXnbjTs+D7iksDF+DKe7RC6hhSvzHmGmM8DAMaVqhTNV4SssCnQ16whrc0AKkNlYz7I/Mm9GusUUUNZZ00ijLj+BCTCG8qQKWifjafeV4ypuBqX2VOarRrdd7VwKhI8NfCBCiunNnMbGt9PIgliNQ3qrd58P/FUsKtt7dmZKxFQMJoHYRWBsQ1Vx/fH3w+c8Pp77InZjgsHFIBAAA=
p424
aVH4sIAAAAAAAEAG2QQQuCQBCF74H/Qby7qyUFokJQB8EuidB1WzcdWFfbXbOf35ZYSb3DY2DmY95MdGSq5Tdy5iwtmdBwASbte8OFCiF2aq27EONhGNCwQq2s8NLzfHw6ZDmtWUNcEEoTQZkzMm9CvdoKlUQT2gotCdUTH2Bvg7cloEISJ7EWth2NKZhMy2QqFdo3KmsroIRH+GtgBuQdoyYz3Zk9NoQCeOxo2Zs8+P9gIeDam1sTb5TvGlu7gfFnNdqkz94f3FpMzfnvkge7fEHAUgEAAA==
p425
aVH4sIAAAAAAAEAG2QzQrCMBCE74LvUHpvkqoglDYg6KFQL4rgNSaxXUjTmkTr4xss8QfdwzKw+zGzm++k7dSNnZQshdQOziBNdG+VthkUceNcn2E8DAMa5qgzNZ4RkuLjttrzRrYsAW0d01zGI/Mi7HNskWCO8U47w7gL/AKTJV4JQAfDYjqdRFE+ppCmFDRIizatrboaOFM5/lj4Ava95D4zX3ufCDINqoidufo8+P/iQcPl6m+lZKw0Iak4JQsvExJaqLfvDz6dhOH37+gDkfw/flIBAAA=
p426
aVH4sIAAAAAAAEAG2QTwvCMAzF74LfYey+ttOhMOZA0MNALw7Ba+2iC3Sdtp3z41sc9Q+aQ3iQ/HgvyXZgWnnjRwlFBcriCUEH90Yqk+IirK29pJT2fU/6KWn1mU4Yi+lhuylFDQ2PUBnLlYBwYF6EeY4NqbjlolVWc2E9n1A2p8sKyV7zMB+PgiAbUoAuqtxLQ9aN2bRnFFxm9GPhCygvIFxmsXI+AaYK5SK0unN56P/FvcJr527N2VBxxKYziBInI+abr7fvDz4e+eH37/IH05NOfVIBAAA=
p427
aVH4sIAAAAAAAEAG2QTwvCMAzF78K+w9h9baeCMLaBoIfBvCiC19jVGeg6bTvnx7c46h80h/Ag+fFekm2F6eQNjlKUtVAWTyh0eG+lMinm0dnaS0rpMAxkmJFON3TKWEIPm2rHz6KFGJWxoLiIRuZFmOfYkBos8E5ZDdx6fk7Zgi5rJHsNURFMwjAbUwhd1oWXhqxbU3UNcpAZ/Vj4AnYXwV1mvnI+IaYKZR5Z3bs89P/iXuG1d7cWbKwkZgySeO5kzHzz9fb9wYOJH37/rngAnd5HelIBAAA=
p428
aVH4sIAAAAAAAEAG2QTwvCMAzF74N9h7H72voPYcyBoIeBXhTBa+yqBrputp3z41scVYfmEB4kP95Lsp0wtbzDSYqiFMriGYWOHpVUJsVFfLW2SSntuo50E1LrCx0zNqLH7WbPr6KCBJWxoLiIe+ZNmNfYkBIs8FpZDdx6fkrZnC5LJAcNcR4GUZT1KYQuytxLQ9aV2dQX5CAz+rUwAPaN4C4zXzmfCFOFchFb3bo89P/iQeGtdbfmrK9RwhjMkqmTCfPN18f3Bw8DPxz+Ln8CphDeLlIBAAA=
p429
aVH4sIAAAAAAAEAG2QTwvCMAzF78K+w9h9bdWBMLaBoIeBXhyC19jVGei62Vbnx7c46h80h/Ag+fFeku2E6eQNjlKUtVAWTyh0eG+lMinm0dnaPqV0GAYyzEmnGzpjbEoP203Fz6KFGJWxoLiIRuZFmOfYkBos8E5ZDdx6PqFsQZc1kr2GqAgmYZiNKYQu68JLQ9at2XQNcpAZ/Vj4AqpecJeZr5xPiKlCmUdWX10e+n9xr/BydbcWbKxpzBgkceJkzHzz9fb9wYOJH37/rngAmKGcoFIBAAA=
p430
aVH4sIAAAAAAAEAG2RX0+DMBTF35fsOxAe9lZaWAtlQxJgkpDoy5YZ30wp3daEf0InJsbvLmxhivp2e09/5572elvRVvkbS3ORZKJU8iBFo70Xedmu5J1+UqpeQdh1ndEtjao5QgshEz4/Puz4SRQMyLJVrORCvzI3or3IrZExxXhVqoZxNfIYIgcGmTT2DdP9+UzTvGsK0SSZH9TFE8vPwoM/mpNLu1rwPiff9N7+IlfrbVWpl/tcFP0DFke1HnqJEsVQf4Q4DGOKKYgJigAONiag1IwAWlI3xFFs2gR9DgQckcvht+d3nMn4f4PtS/l67v/TZ9TODpikwOWUAYelCFBkEUAIx5nj2sQi4q/xDZ/PRnG6H/8LjMfVTLYBAAA=
p431
aVH4sIAAAAAAAEAG2QzQrCMBCE74LvUHJvErUolFoQ9CDUi6XgNabRLqRJTaL18Q2W+IPuYRnY/ZjZzfbCanljRym2tVAOTiBMdG+lsiksUeNclxLS9z3uZ1ibM5lSOiGHXVHyRrQsBmUdU1yggXkR9jm2uGaOca2cYdwFPiF0QVY14MowlI9HUZQNKYTZ1nmQFm9aW+gzcCYz8rHwBZSd4D4zX3ufCFIFcomcufo85P9ipeBy9bfmdKhpTOl8ESdexjS0UG/fH3w8CsPv3+UPj0CxEVIBAAA=
p432
aVH4sIAAAAAAAEAG2Ry26DMBBF95HyD4hFdsaAzSuhSCmkElKzSZSqu8qYIbHEq+CUSlX/vZCItLTdjef63Ln2+Dtoq/yNJTnEKZRSZAIa5b3Iy3Yp7tSTlPUS467rtI5oVXPEpq4b+Hn7uOcnKBgSZStZyUG9MjeivcitljLJeFXKhnE58hTrDl6nQjs0TA3mM0XxrymgidNgXRdPLD+Dj380J5f2NfA+J49672CRy9WuquTLJoeif8DiKFdDL5ZQDPWH9xB6ZOPcI484FFEzIsiLHBNZlksNatOQ6OHnQOARuRx+e37HmYz/N9ihFK/n/j8DA+zEsrMMZYRzlLhWgmzL05HtUDA4WI6bsL/GN3w+G8XpfoIvIbM59rYBAAA=
p433
aVH4sIAAAAAAAEAG2RX2+CMBTF3038DoYH30qLUBFlJCAsIdleNC57W0p7UZLyZ1DHkmXffaDBjW1vt/f0d+5pr7uDppRvLJEQCyhUlmZQz95zWTTr7E47KVWtMW7bVm9NvayPeEGIgZ8fH/b8BDlDWdEoVnDQrsyNaC5yowumGC8LVTOuBt7CxMa+yPRDzTRvOpnN3GsKqGPh+VX+xOQZXPyjObq0r4B3OXnYeXtzqTa7slQvkYS8e8D8qDZ9L1aQ9/WHvaW+5RgEhZEVIsuyCPKNIED3fkTNbbBYOZR+9gQekMvht+d3nNH4f4Mdiuz13P2nR03bALBTxBOHoyQRHC25SBGYyYpQ4EvHdP4a3/DpZBDH+/G+APjADxi2AQAA
p434
aVH4sIAAAAAAAEAG2Ry26DMBBF95HyDyiL7IyNyzOhSCiAhNRuEqXqrjL2NEEyj4JTKlX990IiktJ2N57rc+fa42+hreQ7yySkAkqVv+bQaB+FLNtVfr84KlWvMO66Tu/u9Ko5YEqIgZ8fH3b8CAVDedkqVnJYXJgr0Z7lVhdMMV6VqmFcjbyJiYNDkev7hi2C+UzT/EsKaFIRhHXxxOQJfPyjObm0q4H3OXnUewdLqdbbqlIvsYSif8DyoNZDL1VQDPWnF5nU9iyKQi+myKR0g8IwIWgT2yQ2YxpFSfI1EHhEzoffnrc4k/H/BtuX+dup/8/AcW2XeESgDBhBmWtbCBzHQsJyXSDUMjKD/TW+4vPZKE73E3wDHsZjp7YBAAA=
p435
aVH4sIAAAAAAAEAG2RX2uDMBTF3wv9DuJD32LiP2JaJ+hiQdheWjr2NmKMraDRaToHY9992mI3t73d3JPfuSe5/k50dfnG0lIkmZCqyAvRau9VKbt1caeflGrWEPZ9b/S2UbdHaCFkwufHhz0/iYqBQnaKSS70K3MjuovcGRlTjNdStYyriXcgwjDMCuPQMj1YLjTNv6YQbZIFYVM9sfIsfPijObu0bwQfcnI6eAerUm12da1e4lJUwwNWR7UZe4kS1Vh/RFs7pDii4J5GMXDMmIIQuxggSpytTSwbE/w5EnBCLoffnt9xZuP/DXaQxet5+M+ApV5GTJcAx8MpcCzmgTRHFkCuSbiJMck956/xDV8uJnG+n+ALhU64O7YBAAA=
p436
aVH4sIAAAAAAAEAG2RUW+CMBSF3038D4QH30rBFrDKSEAkIZkvGpe9LbUUbQKFQR1Llv33gQY3tr3d3tPv3NNeb8ebMn+jx5wnKZdKZILX2nuRy2YpHvSzUtUSwrZtjRYZZX2Cc9O04PP2cc/OvKBAyEZRybh+Y+5Ec5UbI6WKslKqmjI18BiaLgxSYRxqqvvTiaZ5txS8TlI/qIonml+4B380R5f2FWddThZ13v4sV6tdWaqXTc6L7gGzk1r1vUTxoq8/FmszjDGxAQnsDcDOIgYhJhZYYxTFkemEeEM+ewIOyPXw2/M7zmj8v8EOUrxeuv/0j8gihLoEIBc5gFPHBnNCKbBQZrsWzpDpZH+N7/h0Mojj/fhfmr+LXLYBAAA=
p437
aVH4sIAAAAAAAEAG2RwW+CMBTG7yb+D4SDt9JScAVlJE45kGwXjctuy7MtSlIKgzqWLPvfhxp0bLu9fq+/733ti9ayKdU77JRMhdQmz3JZWx+F0s0sv7cPxlQzjNu2dVrPKes9poS4+OXpccMPsgCU68aA5tK+MFeiObcbR4ABXmpTAzc972PC8ELkzrYGOx6PLCu6pJB1KuJFVTyDOsoI/xAHlzaV5F1Ovuq844ky83VZmtdEyaJ7wGRv5ictNbI41Z+EMddPggfkTSlD/jIJUJgkHvKWXjINGaFsFXydCNwj58Nvz1ucwfh/g211/nbs/jMWoRB3u0wg8JhAIRWABAkAubyTgQKlGfw1vuLjUd8c7if+BpENznW2AQAA
p438
aVH4sIAAAAAAAEAG2Ry26DMBBF95HyD4hFdsY8jZNQJBpYILWbRKm6q2wzSZDMo+CUSlX/vZCItLTdjef63Ln2BFtoK/nGuIQ0g1Llhxwa7b2QZbvK7/STUvUK467rjM4xquaIbdO08PPjw06coGAoL1vFSgH6lbkR7UVujYwpJqpSNUyokXex6eMoy419w/RwPtO04JoCmjQLo7p4YvIMAf7RnFza1SD6nCLuvcOFVOttVamXRELRP2BxVOuhlyoohvrj3tkQ07MosmgcITdOHLT0XIqihDiJT7yNk9ifA4FH5HL47fkdZzL+32D7Mn899/8ZCsrpkjg2As4y5HPqIhMoQybj1sEHTjjx/xrf8PlsFKf7Cb8AZGVKUbYBAAA=
p439
aVH4sIAAAAAAAEAG2RUW+CMBSF3038D4YH30op7QCVkSBCQrK9aFz2tpRyVRIoDOpYsuy/DzS4se3t9p5+5572ultoyvyNJznEKUiVHTKoZ+9FLptldq+dlKqWGLdtq7dUL+sjNg2D4OfHh504QcFRJhvFpQDtytyI5iI3esoVF6VUNRdq4Bk2bOynmb6vueZNJ7OZe00BdZx6flU88fwMLv7RHF3aVSC6nGLTeXvzXK22ZalewhyK7gHzo1r1vVhB0dcfzDcZiWiEyHpNEKMbBzlOsEBhRAIaUjMwbeuzJ/CAXA6/Pb/jjMb/G2wvs9dz958eMG6BDQ7ipsOQBYsDSljCEOEURGIJC8jdX+MbPp0M4ng/3herwWtPtgEAAA==
p440
aVH4sIAAAAAAAEAG2RzW6DMBCE75HyDohDbsbmx5gmFMkRPSC1l0SJequMMYklYyg4pVLVdy9JRFra3tY7/mbH3ngjulq9sVyJrBDayFKK1nqvlO6W8t4+GtMsIez73ul9p24P0EPIhc9Pj1t+FBUDUneGaS7sK3MjuovcOQUzjNfatIybkQ8gIpAW0tm1zE7mM8uKrylEmxUJbao9UycRwx/NyaVtI/iQk6eDd7JQZrWpa/PyoEQ1PGBxMKtzLzOiOtcfLnb9gNI7kEYkAoFLCVinBIMwXdMwINQlhH6eCTgil8Nvz+84k/H/Bttp+Xoa/jOJGC8FZhj4YYgAYiUGOfYw8BAu8jLwQ+Llf41v+Hw2itP9JF+MU3SitgEAAA==
p441
aVH4sIAAAAAAAEAG2QTwvCMAzF78K+w9h9bacDYWwDQQ+CXhwDr7GrGui62Vbnx7c46h80h/Ag+fFeku+E6eQNDlKsG6EsHlHo8N5KZTIsorO1fUbpMAxkmJFOn+iUsYTut5uKn0ULMSpjQXERjcyLMM+xIQ1Y4J2yGrj1fErZnC4aJLWGqAwmYZiPKYReN6WXhqxas+lOyEHm9GPhC6h6wV1mvnQ+IWYKZRFZfXV56P/FWuHl6m4t2VhJzBhM49TJmPnm6+37gwcTP/z+XfkAngvxM1IBAAA=
p442
aVH4sIAAAAAAAEAG2QQQvCMAyF7wP/w9h9bacDYWwDQQ+CXhyC19hVDXTdbKvz51scVYfmEB4kH+8l+U6YVt7hKMW6FsriCYUOH41UJsMiuljbZZT2fU/6GWn1mU4ZS+hhu6n4RTQQozIWFBfRwLwJ8xobUoMF3iqrgVvPp5TN6aJGstcQlZMgDPMhhdDruvTSkFVjNu0ZOcicfi2MgKoT3GXmS+cTYqZQFpHVN5eH/l/cK7ze3K0lGyqJGYN5nDoZM998fXx/8Engh+PflU+bdCrpUgEAAA==
p443
aVH4sIAAAAAAAEAG2QTwvCMAzF74N9h7H72voHhTEHgh4GelEEr7GrGui62XbOj29xVB2aQ3iQ/HgvyXbC1PIOJymKUiiLZxQ6elRSmRQX8dXaJqW06zrSTUitL3TM2Iget5s9v4oKElTGguIi7pk3YV5jQ0qwwGtlNXDr+Sllc7oskRw0xHkYRFHWpxC6KHMvDVlXZlNfkIPM6NfCANg3grvMfOV8IkwVykVsdevy0P+LB4W31t2as75GCWMwS6ZOJsw3Xx/fHzwM/HD4u/wJpcVoZ1IBAAA=
p444
aVH4sIAAAAAAAEAG2Q0QuCMBDG3wP/B/HdbZVUiAlBPQj2kgi9rrnsYM7aZvbnN5JVUvdwfHD34/vukgPXrbjTk+BZxaWBM3DlPxohdQzr4GLMNca473vUz1GrajwjZIqP+7xgF97QEKQ2VDIeDMyb0K+xRhU1lLXSKMqM4yNMlnhTASoVDVJv4vvJkIKrrEqd1GjX6LytgVGR4K+FEVBcObOZ2db6+BBLEOvAqM7mwf8XSwm3zt6akqFmISGLVRhZGRLXXH18f3Bv4obj36VPwcetpVIBAAA=
p445
aVH4sIAAAAAAAEAG2QzQrCMBCE74LvEHpvkmpBKG1B0INQL0rBa0yjLqRJTVLr4xss8QfdwzKw+zGzm++E1fLGjlJsGqEcnEAYdG+lshkU0cW5LiNkGAY8zLE2ZzKjNCGHbbXnF9GyGJR1THERjcyLsM+xxQ1zjGvlDOMu8CmhC7JsANeGReV0glA+phBm05RBWrxubaXPwJnMycfCF7DvBPeZ+cr7IMgUyCJypvd5yP/FWsG197eWdKwkpnR2jFMvYxpaqLfvDz6dhOH378oHL8SqDFIBAAA=
p446
aVH4sIAAAAAAAEAG2Q0QuCMBDG3wP/B/HdbZURiQlBPQj2kgi9rrnsYM7aZvbnN5JVUvdwfHD34/vukgPXrbjTk+BZxaWBM3DlPxohdQzr4GLMNca473vUz1GrajwjZIqP+7xgF97QEKQ2VDIeDMyb0K+xRhU1lLXSKMqM4yNMlnhTASoVDVJv4vvJkIKrrEqd1GjX6LytgVGR4K+FEVBcObOZ2db6+BBLEOvAqM7mwf8XSwm3zt6akqFmISGLVRhZGRLXXH18f3Bv4obj36VPkJGvslIBAAA=
p447
aVH4sIAAAAAAAEAG2QzQrCMBCE74LvUHJvEqMglFoQ9FCoF0XwGtNoF9KkJtH6+AZL/EH3sAzsfszs5lvpjLrxo5JlLbWHE0ib3FulXQYL1HjfZYT0fY/7KTb2TBilE3LYVDvRyJanoJ3nWkg0MC/CPccO19xzYbS3XPjIzwidk2UNeG85KsajJMmHFNKWdRGlw+vWVeYMgqucfCx8AbtOipBZrIJPApkGtUDeXkMe8n9xr+FyDbcWdCiWUsZYOgsypbHFevv+4ONRHH7/rngAa2UCWlIBAAA=
p448
aVH4sIAAAAAAAEAG2QQQvCMAyF74P9h7H72jonwpgDQQ/CvCiC19pFDXSdttX58y2OqkNzCA+Sj/eSYgOmlXd+kLCqQVk8Iujo0UhlcpzFZ2svOaVd15FuTFp9oiljI7pfV1txhoYnqIzlSkDcM2/CvMaG1Nxy0SqrubCezyib0nmNZKd5XIZBFBV9CtCruvTSkGVjqvaEgsuCfi0MgO0FhMssFs4nwlyhnMVW31we+n9xp/B6c7eWrK80YWwCSeZkwnzz9fH9wcPAD4e/K58HDdiPUgEAAA==
p449
aVH4sIAAAAAAAEAG2QQQuCQBCF74H/Qby7axYUokJQB8EuidB1WzcdWFfbXbOf35aYSc1heDDz8d5MeGKq4Xdy4SwpmNBwBSbtR82FCiByKq3bAOO+71G/Qo0sse95S3w+phmtWE1cEEoTQZkzMB9CvccKFUQT2ggtCdUjv8beBu8KQLkkTmwtbDscUjCZFPEoFTrUKm1KoISH+GthBmQtoyYz3RsfGwIBPHK07Ewe/H8xF3DrzK2xN5TvmkBb9yWnNtbk+4Nbi3E4/138BFr239ZSAQAA
p450
aVH4sIAAAAAAAEAG2QywrCMBBF90L/oXSfR1UQSlsQdCHoRhHcxjS2A2lSk9T6+QZLfKCzGC7MHO6dyffCanljZyk2lVAOLiBMfG+lshkUSeNclxEyDAMeZlibmkwpTclptz3wRrQMgbKOKS6SkXkR9jm2uGKOca2cYdwFfk7ogiwrwEfDkjKaxHE+phBmU5VBWrxu7VbXwJnMycfCF3DoBPeZ+cr7xJApkEXiTO/zkP+LRwXX3t9a0rFS5AMt0NxLREML9fb9waNJGH7/rnwAb71c/1IBAAA=
p451
aVH4sIAAAAAAAEAG2QzQrCMBCE74LvEHpvErUglLYg6KGgF6XgNaZpXUjTmkTj4xss8QfdwzKw+zGzm+2F6eWNnaQoa6EsNCA0undSmRTy6GztkBLinMNugXvdkjmlM3LcbQ/8LDoWgzKWKS6ikXkR5jk2uGaW8V5ZzbgNfELokqxqwJVmUTGdIJSNKYQu6yJIgzed2fYtcCYz8rHwBRwGwX1mvvY+CFIFMo+svvo85P9ipeBy9bcWdKxZTGmzjBMvYxpaqLfvDz6dhOH374oHHuM1wVIBAAA=
p452
aVH4sIAAAAAAAEAG2QTwvCMAzF78K+w9h9baeCMLaBoAdBL4rgtXZxC3TdbDvnx7c46h80h/Ag+fFeku3BtPLGzxI2JSiLFwQd3hupTIp5VFvbpZQOw0CGGWl1RaeMJfS02x5EDQ2PURnLlYBoZF6EeY4NKbnlolVWc2E9P6dsQZclkqPmURFMwjAbU4DelIWXhqwbs20rFFxm9GPhCzh0IFxmsXI+IaYKZR5Z3bs89P/iUeG1d7cWbKwkZuwM8dzJmPnm6+37gwcTP/z+XfEAEzlDd1IBAAA=
p453
aVH4sIAAAAAAAEAG2QywrCMBBF90L/oXSfR1UQShsQdCHoRhHcxjTqQJrUJLV+vsESH+gshgszh3tnyq10Rt34UclVLbWHE0ib3hulXQFVdvG+LQjp+x73E2zsmYwpzclhs96Ji2w4Au0810JmA/Mi3HPscM09F0Z7y4WP/JTQGZnXgPeWZywZpWk5pJB2VbMoHV42bm3OILgqycfCF7BrpQiZxSL4pFBoUFXmbRfykP+Lew3XLtzK6FA5olRQNA0S0dhivX1/8GQUh9+/Yw/W16qsUgEAAA==
p454
aVH4sIAAAAAAAEAG2QTwuCQBDF74HfQby7u2oRiApBHQS7JELXbd10YF1td80+fpbYH2oOw4OZH+/NRAeuW3GlJ8HTkksDZ+DKvjVC6hBipzamCzEehgENAWpVhX1CPHzcZzmreUNdkNpQybgzMS9CP8caldRQ1kqjKDMzv8RkjTcloEJRJ7EWth1NKbhKy2SWGu0anbUVMCoi/LHwBeQdZ2Nmth19bAgliNgxqh/z4P+LhYRLP96akKk8l/jByn3Id5vr7fuDW4t5+P275A4y7V0bUgEAAA==
p455
aVH4sIAAAAAAAEAG2QTwuCQBDF74HfQby7u2oUiApBHQS7JELXbd10YF1td80+fpbYH2oOw4OZH+/NRAeuW3GlJ8HTkksDZ+DKvjVC6hBipzamCzEehgENAWpVhX1CPHzcZzmreUNdkNpQybgzMS9CP8caldRQ1kqjKDMzv8RkjTcloEJRJ7EWth1NKbhKy2SWGu0anbUVMCoi/LHwBeQdZ2Nmth19bAgliNgxqh/z4P+LhYRLP96akKk8l/jByn3Id5vr7fuDW4t5+P275A4xOOtSUgEAAA==
p456
aVH4sIAAAAAAAEAG2QQQvCMAyF7wP/w9h9bZ0DYcyBoIeBXpSB19hVDXTdbKvz51scVYfmEB4kH+8l+U6YVt7hKEVZC2XxhEKHj0Yqk+EiuljbZZT2fU/6GWn1mSaMTelhu9nzi2ggRmUsKC6igXkT5jU2pAYLvFVWA7eeTymb02WNpNIQFZMgDPMhhdBlXXhpyLoxm/aMHGROvxZGwL4T3GXmK+cTYqZQLiKrby4P/b9YKbze3K0FG2oasySBOHUyZr75+vj+4JPAD8e/K54nOytlUgEAAA==
p457
aVH4sIAAAAAAAEAG2QywrCMBBF9wX/IXTfJD5AKG1B0EVBN0rBbUzTOpAmNYnWzzdY4gOdxXBh5nDvTLYXVssbO0lR1kI5aEAYdO+ksink8dm5PiVkGAY8zLE2LZlROiXH3fbAz6JjCSjrmOIiHpkXYZ9ji2vmGNfKGcZd4BeELsmqBlwZFheTCKFsTCFMWRdBWrzp7Fa3wJnMyMfCF3DoBfeZ+dr7IEgVyDx25urzkP+LlYLL1d9a0LGmCZ01TbLwMqGhhXr7/uCTKAy/f1c8APG2na9SAQAA
p458
aVH4sIAAAAAAAEAG2QzQrCMBCE74LvUHpvkmpBKG1B0EOhXpSC15hEXUjTmkTj4xss8Qfdw7Kw8zGzW2yF6eWNHqSouVAWjiB0dO+kMjmU8dnaIcfYOYfcHPX6hGeEpHi/aXbsLDqagDKWKibikXkR5rk2iFNLWa+spswGPsNkgZccUKtpXE0nUVSMKYSueRVGg9adafoTMCoL/CH4AnaDYD4zW3mfCHIFsoytvvo8+L+wVXC5+lsrMlaakLlvmR8TElqot+8PPp2E5ffvqgetW/oAUgEAAA==
p459
aVH4sIAAAAAAAEAG2QzQrCMBCE70LfofTeJFVRKG1A0IOgF0vBa0yiLqRpTaL18Q2W+IPuYRnY/ZjZLXbSturGDkquhdQOjiBNfG+UtjmUydm5Lse473vUT1BrTnhMSIb3203Fz7JhKWjrmOYyGZgXYZ9jiwRzjLfaGcZd4KeYzPFCAKoNS2g0iuNiSCHNWtAgLVo1dtOegDNV4I+FL6DqJPeZ+dL7xJBrUGXizNXnwf8Xaw2Xq7+VkqGylGQzkU69TElood6+P3g0CsPv39EH5gg701IBAAA=
p460
aVH4sIAAAAAAAEAG2QTwvCMAzF74LfYey+tlNRGNtA0MNAL4rgtXZxC3Sdtp3z41sc9Q+aQ3iQ/HgvSXdgWnnjJwlFCcriGUEH90Yqk2AW1tZeEkr7vif9lLS6ohPGYnrcbvaihoZHqIzlSkA4MC/CPMeGlNxy0SqrubCen1G2oMsSyUHzMB+PgiAdUoAuytxLQ9aN2bQVCi5T+rHwBewvIFxmsXI+ASYKZRZa3bk89P/iQeG1c7fmbKg4YvEcopmTEfPN19v3Bx+P/PD7d/kD2Ll5XVIBAAA=
p461
aVH4sIAAAAAAAEAG2QzQrCMBCE74LvUHpvErUolBoQ9FCoF0vBa0yiLqSpJqn18Q2W+IPuYRnY/ZjZzXfSturGDkoWQmoHR5AmujdK2wyW8dm5S4Zx3/eon6HWnPCUkAneb8uKn2XDEtDWMc1lPDAvwj7HFgnmGG+1M4y7wKeYLPBKAKoNi+l4FEX5kEKaQtAgLdo0tmxPwJnK8cfCF1BdJPeZ+dr7RJBpUMvYmc7nwf8Xaw3Xzt9KyVCThBAxT1IvExJaqLfvDz4eheH37+gDVerYF1IBAAA=
p462
aVH4sIAAAAAAAEAG2QQQvCMAyF74P9h7H72qoDYWwDQQ+DeXEIXmtbNdB12nbOn29xVB2aQ3iQfLyX5DthOnmnRykqLpSFEwgdPVqpTAZFfLH2mmE8DAMaFqjTZzwnZIYP27phF9HSBJSxVDERj8ybMK+xQZxayjplNWXW8ykmS7zigPaaxmUYRFE+phC64qWXBm1aU3dnYFTm+GthAjRXwVxmtnY+EWQKZBFb3bs8+P/iXsGtd7eWZKxZQghfJqmTCfHN18f3Bw8DP5z+rnwCa1uamVIBAAA=
p463
aVH4sIAAAAAAAEAG2QzQrCMBCE74LvUHpvErWglBoQ9FCoF0vBa0yiLqSpJqn18Q2W+IPuYRnY/ZjZzXfSturGDkoWQmoHR5AmujdK2wyW8dm5S4Zx3/eon6HWnPCUkAneb8uKn2XDEtDWMc1lPDAvwj7HFgnmGG+1M4y7wKeYzPFKAKoNi+l4FEX5kEKaQtAgLdo0tmxPwJnK8cfCF1BdJPeZ+dr7RJBpUMvYmc7nwf8Xaw3Xzt9KyVCThBCxSFIvExJaqLfvDz4eheH37+gDJdyGLVIBAAA=
p464
aVH4sIAAAAAAAEAG2QQQvCMAyF74P9h7H72m6KypgDQQ+CXhTBa23rDHTdbKvz51scVYfmEB4kH+8lxU6YRt7pSYo1F8rCGYSOHrVUJod5fLG2zTHuug51I9ToCmeEpPi43ezZRdQ0AWUsVUzEPfMmzGtsEKeWskZZTZn1/BiTKV5wQAdN4zIMoqjoUwi95qWXBq1qs2kqYFQW+GthAOxbwVxmtnQ+EeQK5Dy2+uby4P+LBwXXm7u1JH2lCckms2TsZEJ88/Xx/cHDwA+HvyufX6jYM1IBAAA=
p465
aVH4sIAAAAAAAEAG2QQQvCMAyF74P9h7H72m6K4pgDQQ+CXhTBa23rDHTdbKvz51scVYfmEB4kH+8lxU6YRt7pSYo1F8rCGYSOHrVUJod5fLG2zTHuug51I9ToCmeEpPi43ezZRdQ0AWUsVUzEPfMmzGtsEKeWskZZTZn1/BiTKV5wQAdN4zIMoqjoUwi95qWXBq1qs2kqYFQW+GthAOxbwVxmtnQ+EeQK5Dy2+uby4P+LBwXXm7u1JH2lCckms2TsZEJ88/Xx/cHDwA+HvyufYRmavVIBAAA=
p466
aVH4sIAAAAAAAEAG2Q0QuCMBDG34X+B/HdbZYgiApBPQT2Ugi9rrn0YM7aZvbnN5JVUvdwfHD34/vusgPXvbjTs+C7mksDF+DKf3RC6hTyoDXmmmI8jiMaV6hXDV4SEuHTvjyylnc0BKkNlYwHE/Mm9GusUU0NZb00ijLj+BiTBK9rQJWiQbHwfD+bUnC1qwsnNdp2uuwbYFRk+GthBhyvnNnMbGN9fEgliDwwarB58P/FSsJtsLcWZKooJHEShbGVIXHN1cf3B194bjj/XfEEEKQftVIBAAA=
p467
aVH4sIAAAAAAAEAG2QywrCMBBF94L/ULrPo7YglLYg6ELQjVJwG9OoA2lSk9T6+QZLfKCzGC7MHO6dKXbCanljRynWjVAOTiBMdG+lsjmU8cW5LidkGAY8pFibM5lRmpDDdrPnF9EyBMo6priIR+ZF2OfY4oY5xrVyhnEX+IzQOVk0gGvD4mo6iaJiTCHMuqmCtHjV2o0+A2eyIB8LX8C+E9xn5kvvE0GuQJaxM73PQ/4v1gquvb+1omMliNJ5ijIvEQ0t1Nv3B59OwvD7d9UDO5SFMlIBAAA=
p468
aVH4sIAAAAAAAEAG2Q0QuCMBDG3wP/B/HdbZYhiAlBPQj2UgS9rrnyYE7bZvbnN5JVUvdwfHD34/vusj3XrbjTs+BFxaWBC3DlPxohdQqroDamSzEehgENC9SqK54TEuHTrjywmjc0BKkNlYwHI/Mm9GusUUUNZa00ijLj+BiTBK8rQEdFg9yb+X42puCqqHInNdo2umyvwKjI8NfCBDh0nNnMbGN9fEgliFVgVG/z4P+LRwm33t6ak7GikJBkGcZWhsQ1Vx/fH9ybueH0d/kTPT7ooVIBAAA=
p469
aVH4sIAAAAAAAEAG2QywrCMBBF94L/ELrPoz4olLYg6ELQjaXgNqZRB9JUk2j9fIMlatFZDBdmDvfOZDtpW3XnByXXtdQOjiANejRK2xTy6OzcJaW06zrSTUlrTnTCWEz3200pzrLhGLR1XAsZ9cybsK+xJTV3XLTaGS5c4GeUJXRRA6kMj4rxCKGsTyHNui6CtGTV2E17AsFVRr8WBkB5kcJnFkvvgyDVoPLImZvPQ/8vVhquN39rwfqKMYuTOZ55iVlooT6+P/h4FIbD3xVPGChLXFIBAAA=
p470
aVH4sIAAAAAAAEAG2QzQrCMBCE74LvEHrPT1UslLYg6EHQi6XgNaZRF9JUk2h9fIMlatE9LAO7HzO72U7aVt35Qcl1LbWDI0iDHo3SNoU8Ojt3SSntuo50U9KaE50wFtP9dlOKs2w4Bm0d10JGPfMm7GtsSc0dF612hgsX+BllCV3UQCrDo2I8QijrU0izrosgLVk1dtOeQHCV0a+FAVBepPCZxdL7IEg1qDxy5ubz0P+LlYbrzd9asL5izOJkjmdeYhZaqI/vDz4eheHwd8UTG/39FVIBAAA=
p471
aVH4sIAAAAAAAEAG2QTwvCMAzF7wO/w9h9bacDYWwDQQ+CXhwDr7GrGui62Vbnx7c46h80h/Ag+fFeku+E6eQNDlKsG6EsHlHo8N5KZTIsorO1fUbpMAxkmJFOn+iUsYTut5uKn0ULMSpjQXERjcyLMM+xIQ1Y4J2yGrj1fErZnC4aJLWGqJwEYZiPKYReN6WXhqxas+lOyEHm9GPhC6h6wV1mvnQ+IWYKZRFZfXV56P/FWuHl6m4t2VhJ7AJBnDoZM998vX1/8Engh9+/Kx+z2eysUgEAAA==
p472
aVH4sIAAAAAAAEAG2QzQrCMBCE7wXfofSen6oglLYg6EHQi1LwmqZRF9KkJtH6+AZL1KJ7WAZ2P2Z2872wWt5ZLcWmEcrBCYSJH61UNoMiuTjXZYT0fY/7GdbmTKaUpuS42x74RbQMgbKOKS6SgXkT9jW2uGGOca2cYdwFfk7ogiwbwJVhSTmJ4jgfUgizacogLV63dqvPwJnMydfCCDh0gvvMfOV9YsgUyCJx5ubzkP+LlYLrzd9a0qFS5APVaO4loqGF+vj+4JMoDMe/K5+wDFrlUgEAAA==
p473
aVH4sIAAAAAAAEAG2Q0QuCMBDG34X+B/HdbZYUiApBPQT2kgi9rrnsYM7aZvbnN5JVUvdwfHD34/vu0gPXnbjTk+C7mksDZ+DKf7RC6gSy4GLMNcF4GAY0LFCnGjwnJMLHfVGyC29pCFIbKhkPRuZN6NdYo5oayjppFGXG8TEmK7yuAVWKBvnM8/10TMHVrs6d1Gjb6qJrgFGR4q+FCVBeObOZ2cb6+JBIEFlgVG/z4P+LlYRbb2/NyVhRSOJoGcZWhsQ1Vx/fH3zmueH0d/kTt3fAQVIBAAA=
p474
aVH4sIAAAAAAAEAG2QQQvCMAyF74P9h7H72m6KypgDQQ+CXhTBa23rDHTdbKvz51scVYfmEB4kH+8lxU6YRt7pSYo1F8rCGYSOHrVUJod5fLG2zTHuug51I9ToCmeEpPi43ezZRdQ0AWUsVUzEPfMmzGtsEKeWskZZTZn1/BiTKV5wQAdN4zIMoqjoUwi95qWXBq1qs2kqYFQW+GthAOxbwVxmtnQ+EeQK5Dy2+uby4P+LBwXXm7u1JH1lCUlnk2TsZEJ88/Xx/cHDwA+HvyufnshvMlIBAAA=
p475
aVH4sIAAAAAAAEAG2QTwvCMAzF78K+w9h9bacDYWwDQQ+CXhyC19jVLdB12lbnx7c46h80h/Ag+fFeku+E6eUNjlKsa6EsnlDo8N5JZTIsotbac0bpMAxkmJFeN3TKWEIP203FW9FBjMpYUFxEI/MizHNsSA0WeK+sBm49n1I2p4sayV5DVAaTMMzHFEKv69JLQ1ad2fQNcpA5/Vj4Aqqz4C4zXzqfEDOFsoisvro89P/iXuHl6m4t2VhJzNIE4tTJmPnm6+37gwcTP/z+XfkAVaIynFIBAAA=
p476
aVH4sIAAAAAAAEAG2RX2+CMBTF3038DoYH30pLQYrKSMBhQrK9aFz2tpRyUZLyZ1DHkmXffaDBjW1vt/f0d+5pr7uDppRvPJYQJVCoLM2gnr3nsmhW2Z12UqpaYdy2rd6aelkfMSXEwM+PD3txgpyjrGgULwRoV+ZGNBe50ROuuCgLVXOhBt7ChGE/yfRDzTVvOpnN3GsKqKPE86v8icszuPhHc3RpX4Hocor7ztubS7XelaV6CSXk3QPmR7Xue5GCvK8/bINuHMekiAaEIcu0GQqc0ET+NqDUsLYkpJvPnsADcjn89vyOMxr/b7BDkb2eu//0EsuxY8NaIJYIG6VLYiBghCKTGWLBlzROqf3X+IZPJ4M43o/3BXPTuB22AQAA
p477
aVH4sIAAAAAAAEAG2QQQvCMAyF7wP/w9h9bZ3CZGwDQQ+CXpSB19rWGei62Vbnz7c4qg7NITxIPt5L8r0wrbzTkxQbLpSFMwgdPhqpTAZFdLG2yzDu+x71M9TqGieETPFxtz2wi2hoDMpYqpiIBuZNmNfYIE4tZa2ymjLr+TkmKV5yQJWmUTkJwjAfUgi94aWXBq0bs21rYFTm+GthBBw6wVxmtnI+IWQKZBFZfXN58P/FSsH15m4tyVBJTKaLNJ47GRPffH18f/BJ4Ifj35VPoHktvFIBAAA=
p478
aVH4sIAAAAAAAEAG2RX0+DMBTF35fsOxAe9lYKlL8bkuCAhERftsz4ZkpbNpJSEDoxMX53YQtT1Lfbe/o797Q32LGu5m845yyjTMiyKFmrvFdcdOvyTj1J2awh7Pte65FWt0do6roBnx8f9uTEKgxK0UksCFOvzI3oLnKnUSwxqYVsMZETb0HdhREttUOL1XC5UJTgmoK1GQ2jpnrC/MwC+KM5u7RvGBlyknjwDldcbnZ1LV8SzqrhAauj3Iy9TLJqrD/81NGRk/gAoXQLLCf2QLQ1fGD6nhGj+9iz0+RzJOCEXA6/Pb/jzMb/G+wgytfz8J8h8myP2QQB2zIpwIVlAze3KLBp4RYFcXHuWH+Nb/hyMYnz/YRflXNc9rYBAAA=
p479
aVH4sIAAAAAAAEAG2Q0QuCMBDG34X+B/HdbZZQiApBPQT2kgi9rrnsYM7aZvbnN5JVUvdwfHD34/vu0gPXnbjTk+C7mksDZ+DKf7RC6gSy4GLMNcF4GAY0LFCnGjwnJMLHfVGyC29pCFIbKhkPRuZN6NdYo5oayjppFGXG8TEmS7yuAVWKBvnM8/10TMHVrs6d1Gjb6qJrgFGR4q+FCVBeObOZ2cb6+JBIEFlgVG/z4P+LlYRbb2/NyVhRSOJoFcZWhsQ1Vx/fH3zmueH0d/kTx0Gee1IBAAA=
p480
aVH4sIAAAAAAAEAG2Q0QuCMBDG34X+B/HdbZYgiApBPQT2Ugi9rrn0YM7aZvbnN5JVUvdwfHD34/vusgPXvbjTs+C7mksDF+DKf3RC6hTyoDXmmmI8jiMaV6hXDV4SEuHTvjyylnc0BKkNlYwHE/Mm9GusUU0NZb00ijLj+BiTBK9rQJWiQbHwfD+bUnC1qwsnNdp2uuwbYFRk+GthBhyvnNnMbGN9fEgliDwwarB58P/FSsJtsLcWZKooJHGUhLGVIXHN1cf3B194bjj/XfEEicaCz1IBAAA=
p481
aVH4sIAAAAAAAEAG2QTwvCMAzF78K+w9h9baeCMLaBoIfBvCiC19rFGeg6bTvnx7c46h80h/Ag+fFekm3BdPLGjxLKGpTFE4IO761UJsU8Olt7SSkdhoEMM9Lphk4ZS+hhU+3EGVoeozKWKwHRyLwI8xwbUnPLRaes5sJ6fk7Zgi5rJHvNoyKYhGE2pgBd1oWXhqxbU3UNCi4z+rHwBewuIFxmsXI+IaYKZR5Z3bs89P/iXuG1d7cWbKwkZgySeO5kzHzz9fb9wYOJH37/rngAd64Yy1IBAAA=
p482
aVH4sIAAAAAAAEAG2Q0QuCMBDG34X+B/HdbZYQiQpBPQT2kgi9rrnsYM7aZvbnN5JVUvdwfHD34/vu0gPXnbjTk+C7mksDZ+DKf7RC6gSy4GLMNcF4GAY0LFCnGjwnJMLHfVGyC29pCFIbKhkPRuZN6NdYo5oayjppFGXG8TEmS7yuAVWKBvnM8/10TMHVrs6d1Gjb6qJrgFGR4q+FCVBeObOZ2cb6+JBIEFlgVG/z4P+LlYRbb2/NyVhRSOJoFcZWhsQ1Vx/fH3zmueH0d/kT+fDc9VIBAAA=
p483
aVH4sIAAAAAAAEAG2QQQvCMAyF74P9h7H72m4K6pgDQQ+CXhTBa23rDHTdbKvz51scVYfmEB4kH+8lxU6YRt7pSYo1F8rCGYSOHrVUJod5fLG2zTHuug51I9ToCmeEpPi43ezZRdQ0AWUsVUzEPfMmzGtsEKeWskZZTZn1/BiTCV5wQAdN4zIMoqjoUwi95qWXBq1qs2kqYFQW+GthAOxbwVxmtnQ+EeQK5Dy2+uby4P+LBwXXm7u1JH1lCUmns2TsZEJ88/Xx/cHDwA+Hvyuf0E9zhlIBAAA=
p484
aVH4sIAAAAAAAEAG2QQQvCMAyF74P9h7H72m4qypgDQQ+CXhTBa23rDHTdbKvz51scVYfmEB4kH+8lxU6YRt7pSYo1F8rCGYSOHrVUJod5fLG2zTHuug51I9ToCmeEpPi43ezZRdQ0AWUsVUzEPfMmzGtsEKeWskZZTZn1/BiTKV5wQAdN4zIMoqjoUwi95qWXBq1qs2kqYFQW+GthAOxbwVxmtnQ+EeQK5Dy2+uby4P+LBwXXm7u1JH1lCUlnk2TsZEJ88/Xx/cHDwA+HvyufnR3Ze1IBAAA=
p485
aVH4sIAAAAAAAEAG2RX0+DMBTF35fsOyw87K20tLDihiQgmJDoy5YZ30wpZWtS/gidmBi/u7CFKerb7T39nXva621FW6k3liqRZKLUMpeiWbwXqmzX8tY4al2vIey6zuyIWTUHiBGy4PPjw44fRcGALFvNSi6MC3Ml2rPcmhnTjFelbhjXI29DRGGQSXPfMMOfzxYL75JCNEnmB3XxxNRJePBHc3JpVwve5+RR7+0vld5sq0q/xEoU/QOWB70ZeokWxVB/4HsaWVEUgNCKbWCHTgTcO7QCIabkhlAcI4o+BwKOyPnw2/M7zmT8v8H2pXw99f/p42yFSJo7gCCXA8YyCkROU+Bi4lo2tohtOX+Nr/h8NorT/fhfvNKZD7YBAAA=
p486
aVH4sIAAAAAAAEAG2RXWuDMBSG7wv9D8WL3sXERBdtnRC2DoTtpqVjdyPG01aIH9N0Dsb++7TFdm67OeR8PG/e5IRraEr9LhMNcQqFyXYZ1LOPXBfNIru1DsZUC4zbtrVbZpf1HlNCHPzy9LhRB8glyorGyEKBdWYuRHNqN3YqjVRlYWqpzMC7mHAs0sze1tKKppPZLDy7gDpOI1Hlz1IfIcQ/iqOhTQWq86nuO+1ors1yXZbmdaUh7x4w35tlX4sN5P35078LBBPiARFOKXIZE0gEK4q463kuZ0TwG/7VE3hATslvzaud0fX/GtsW2dux+88ImPS55xJEHNmHIEGeDHxEaOJTnu6kcuCv8AWfTobmeD/RN140B1C2AQAA
p487
aVH4sIAAAAAAAEAG2RzW6DMBCE75HyDohDbsYGTKEJRYKQA1J7SZSqt8rYS2KJv4JTKlV990IiktL25t3xNztr+1toq/ydpTkkAkolMwmN9lHkZbuUD/pRqXqJcdd1RmcbVXPAFiEmfnl63PEjFAzJslWs5KBfmCvRnuXWEEwxXpWqYVyNPMXExaGQxr5hejCfaZp/SQFNIoKwLp5ZfgIf/2hOLu1q4H1OHvfewSJXq21VqddNDkW/wOKgVkMvUVAM50/qrB3TCTcoWns2onFEUXRnOX1JPdOxonvqxV8DgUfkXPz2vMWZjP832L6Ub6f+PYMUbOIKiyKaEg9xj7nIE5SiDGzmEkZpRqy/xld8PhvF6f8E3/dExi+2AQAA
p488
aVH4sIAAAAAAAEAG2RX2+CMBTF3038DoYH30r/gLRTRgJOE5L5onHZ21LboiRQGNSxZNl3H2hwY9vb7T39nXva629VXWRv/JCpWCpt0iRV1eQ9z3Q9T++tkzHlHMKmaezGsYvqCAlCGD5vHnfipHIOUl0broWyrsyNqC9ybUtuuCi0qbgwPe9CRGEoU3tfcSsYjyYT/5pCVbEMwjJ/4tlZ+fBHc3BpVyrR5hQPrXcwzcxiWxTmZZWpvH3A9GgWXS82Ku/qj8gJ17MVXgLieBFwCUaAudgFESaUspAtI7L+7AjYI5fDb8/vOIPx/wbb6/T13P5ngKiQJEkYOLjiDmAkMUiQxwBzlKAedWbM8/4a3/DxqBeH+wm+AHW6TE22AQAA
p489
aVH4sIAAAAAAAEAG2Ry27CMBBF90j8A8qCneO8HUMayQEqRWo3IKruKsceIFJeTUxTqeq/NwGFNm1347k+d649wRaaMnvjSQaxhEKlhxTq2XueFc0ivdNOSlULjNu21VtbL+sjtgzDxM+PDztxgpyjtGgULwRoV+ZGNBe50SVXXJSFqrlQA+9gg2AmU31fcy2cTmaz4JoC6liGrMqfeHaGAP9oji7tKhBdTrHuvMN5ppbbslQvmwzy7gHzo1r2vVhB3tcfkc9823IYikxCkGOvV4hR6iIabVauS8m9x8hnT+ABuRx+e37HGY3/N9i+SF/P3X+G1DuYluFL5HrcRiCpiRLJDUQsw0qEzQl3/L/GN3w6GcTxfsIv7KFNtLYBAAA=
p490
aVH4sIAAAAAAAEAG2Q0QuCMBDG34X+B/HdbZYRiApBPQT2kgi9rrnsYM7aZvbnN5JVUvdwfHD34/vu0gPXnbjTk+C7mksDZ+DKf7RC6gSy4GLMNcF4GAY0LFCnGjwnJMLHfVGyC29pCFIbKhkPRuZN6NdYo5oayjppFGXG8TEmK7yuAVWKBvnM8/10TMHVrs6d1Gjb6qJrgFGR4q+FCVBeObOZ2cb6+JBIEFlgVG/z4P+LlYRbb2/NyVhRSOJoGcZWhsQ1Vx/fH3zmueH0d/kTtKJ2CFIBAAA=
p491
aVH4sIAAAAAAAEAG2QTwvCMAzF74LfYey+tupEGNtA0IOgF8fAa+3iFug6bavz41sc9Q+aQ3iQ/HgvSfdgOnnjRwmbCpTFE4IO7q1UJsEsbKw9J5T2fU/6Gel0TaeMTehhty1EAy2PUBnLlYBwYF6EeY4NqbjlolNWc2E9H1O2oMsKSal5mI9HQZAOKUBvqtxLQ9at2XY1Ci5T+rHwBRRnEC6zWDmfABOFMgutvro89P9iqfBydbfmbKhJxOI5RLGTEfPN19v3Bx+P/PD7d/kDhBz0eVIBAAA=
p492
aVH4sIAAAAAAAEAG2QTwvCMAzF78K+w9h9bacDYWwDQQ+CXhyC19rFLdB12lbnx7c46h80h/Ag+fFeku/A9PLGjxLWNSiLJwQd3jupTIZF1Fp7zigdhoEMM9Lrhk4ZS+hhu6lECx2PURnLlYBoZF6EeY4NqbnloldWc2E9n1I2p4sayV7zqAwmYZiPKUCv69JLQ1ad2fQNCi5z+rHwBVRnEC6zWDqfEDOFsoisvro89P/iXuHl6m4t2VhJzBJI49TJmPnm6+37gwcTP/z+XfkAV8dg7FIBAAA=
p493
aVH4sIAAAAAAAEAG2QQQvCMAyF7wP/w+h9bdWBMLaBoIeBXhTBa+3qDHTtbKvz51scVYfmEB4kH+8l+U5YLe/sJEVVC+XgDMLEj1Yqm0GBLs51GSF93+N+jrVpyIzSKTluN3t+ES1LQFnHFBdoYN6EfY0trpljXCtnGHeBTwldkGUN+GAYKidRHOdDCmGqugzS4nVrN7oBzmROvhZGwL4T3GfmK+8TQ6ZAFsiZm89D/i8eFFxv/taSDjVN6IymSeplQkML9fH9wSdRGI5/Vz4BjTKCJ1IBAAA=
p494
aVH4sIAAAAAAAEAG2QTwvCMAzF74LfYey+tlNRGNtA0MNAL4rgtXZxC3Sdtp3z41sc9Q+aQ3iQ/HgvSXdgWnnjJwlFCcriGUEH90Yqk2AW1tZeEkr7vif9lLS6ohPGYnrcbvaihoZHqIzlSkA4MC/CPMeGlNxy0SqrubCen1G2oMsSyUHzMB+PgiAdUoAuytxLQ9aN2bQVCi5T+rHwBewvIFxmsXI+ASYKZRZa3bk89P/iQeG1c7fmbKg4YjHMo5mTEfPN19v3Bx+P/PD7d/kDaqOUK1IBAAA=
p495
aVH4sIAAAAAAAEAG2QTwuCQBDF74HfQby7u5oRiAlBHQS7JEHXbd1yYF1td80+fkuy/aHmMDyY+fHeTLbnuhM3ehK8qLk0cAau/HsrpE5hFTTG9CnG4ziicY46dcExIRE+7sqKNbylIUhtqGQ8mJgXoZ9jjWpqKOukUZQZxyeYLPG6BnRQNMi9me9nUwquijp3UqNtq8vuAoyKDH8sfAFVz5nNzDbWx4dUglgFRg02D/6/eJBwHeytOZkqCklMFmFiZUhcc/X2/cG9mRt+/y5/ALODwKlSAQAA
p496
aVH4sIAAAAAAAEAG2QTwvCMAzF74LfYey+tlNBGdtA0MNAL4rgtXZxC3Sdtp3z41sc9Q+aQ3iQ/HgvSXdgWnnjJwlFCcriGUEH90Yqk2AW1tZeEkr7vif9lLS6ohPGYnrcbvaihoZHqIzlSkA4MC/CPMeGlNxy0SqrubCen1E2p8sSyUHzMB+PgiAdUoAuytxLQ9aN2bQVCi5T+rHwBewvIFxmsXI+ASYKZRZa3bk89P/iQeG1c7fmbKg4YjEsopmTEfPN19v3Bx+P/PD7d/kDGpXKEVIBAAA=
p497
aVH4sIAAAAAAAEAG2QTwvCMAzF74LfYey+tlNBHNtA0MNAL4rgtXZxC3Sdtp3z41sc9Q+aQ3iQ/HgvSXdgWnnjJwlFCcriGUEH90Yqk2AW1tZeEkr7vif9lLS6ohPGYnrcbvaihoZHqIzlSkA4MC/CPMeGlNxy0SqrubCen1E2p8sSyUHzMB+PgiAdUoAuytxLQ9aN2bQVCi5T+rHwBewvIFxmsXI+ASYKZRZa3bk89P/iQeG1c7fmbKg4YjEsopmTEfPN19v3Bx+P/PD7d/kDJCSIn1IBAAA=
p498
aVH4sIAAAAAAAEAG2QTQvCMAyG7wP/w9i9H+pAGLMg6GGgF2XgtXZVA1072+r8+RZH/UADCYHk4X2TciudUTd+ULJqpPZwBGnTe6u0K2Cenb3vCkL6vsf9FBt7IhNKx2S/We/EWbYcgXaeayGzgXkR7jl2uOGeC6O95cJHPid0RhYN4NryjI2SNC0HF9JWDYutw6vWrc0JBFcl+Vj4AnadFMGzWAadFAoNap55ew1+yP/FWsPlGm5ldIgxCpmjPLSIxhLjrfuDj5I4/P4dewCcR1rGUgEAAA==
p499
aVH4sIAAAAAAAEAG2QzQrCMBCE74LvUHJvEn9QKG1B0EOhXiwFrzGJupAmmqTWx7daahXdwzKw+zGzG++kM+rGDkpmQmoPR5A2uFdKuwgSdPb+EhHSNA1uZtjYE5lSOiH7bV7ws6xYCNp5prlEHfMm3GvssGCecaO9Zdz3/JzQJVkJwKVlKB2PgiDuUkibibSXDm8ql5sTcKZi8rHwBRQXydvMfN36BBBpUAnytm7zkP+LpYZr3d6a0q4mIZ0uDuFTDq2vwfcHH4/64ffv0gcgFx+2UgEAAA==
p500
aVH4sIAAAAAAAEAG2QQQvCMAyF78L+w9h9baeCMraBoIeBXhTBa9dWDXTdbKvz51sdVYfmEB4kH+8l2VaYRt5oJUXJhbJwBKHDey2VSSGPzta2KcZd16Fughp9wmNCEnzYrHfsLGoagzKWKiainnkT5jU2iFNLWaOspsx6forJDC84oL2mURGMwjDrUwhd8sJLg1a1WTcnYFRm+GthAOxawVxmtnQ+IaQKZB5ZfXV58P/FvYLL1d1akL6SmJB5FT/lp/n6+P7gwcgPh78rHiESF8ZSAQAA
p501
aVH4sIAAAAAAAEAG2QTwuCQBDF70LfQby7u/0jEBWCOgh2SYSu2+5qA+tau2v28bPETGoOw4OZH+/NhEdhanmnZykSLpSFAoR2H5VUJoDIu1h7DTBu2xa1S1TrEi8ImePTIc3YRVTUB2UsVUx4PfMhzHtsEKeWslpZTZkd+BUmG7zlgHJNvXjmuG7YpxA64fEgDdpXJq1LYFSG+GthAmRXwbrMbNf5uBAokJFnddPlwf8XcwW3prs1Jn3NfUKKtf+SYxtq9P3BZ84wnP4ufgLNDhwtUgEAAA==
p502
aVH4sIAAAAAAAEAG2QTQvCMAyG78L+w9h9badDYcyCoAdhXhTBa22rC3TdbKvz51sc9QMNJASSh/dNyq20rbqxo5JrIbWDE0gT3xulbQHzpHauKzDu+x71E9SaMx4TkuHDptrxWjYsBW0d01wmA/Mi7HNskWCO8VY7w7gLfI7JDC8EoL1hCY1GcVwOLqRZCxpai1aNrdozcKZK/LHwBew6yb1nvvQ6MRQa1Dxx5ur94P+Lew2Xq7+VkiGy1Oc0zX2bklBCvHV/8GgUht+/ow+hI64BUgEAAA==
p503
aVH4sIAAAAAAAEAG2QQQuCQBCF74H/Qby7u1ZQiApBHQS7JELXbd10YF1td81+fpaYSc1heDDz8d5McOK6Fnd6ETzOuTRwBa7sRyWk9iF0SmMaH+Ou61C3QrUq8JIQD5+PScpKXlEXpDZUMu4MzIfQ77FGOTWU1dIoyszIrzHZ4F0OKFPUiayFbQdDCq7iPBqlRodKJ3UBjIoAfy3MgLThrM/M9r2PDb4EETpGtX0e/H8xk3Br+1sjMpTnErJl7ktObazJ9we3FuNw/rvoCR+jVUhSAQAA
p504
aVH4sIAAAAAAAEAG2QTwuCQBDF70LfQby7u/2hQFQI6iDYJRG6brurDaxr7a7Zx88SM6k5DA9mfrw3Ex6FqeWdnqVIuFAWChDafVRSmQAi72LtNcC4bVvULlGtS7wgZI5PhzRjF1FRH5SxVDHh9cyHMO+xQZxaymplNWV24FeYbPCWA8o19eKZ47phn0LohMeDNGhfmbQugVEZ4q+FCZBdBesys13n40KgQEae1U2XB/9fzBXcmu7WmPQ19wkp1v5Ljm2o0fcHnznDcPq7+AnO26pkUgEAAA==
p505
aVH4sIAAAAAAAEAG2QzQrCMBCE70LfofTeJK2CUNqAoIdCvSiC15hGXUiTmqTGx7da6g+6h2Vg92NmN98Iq+WVHaQoa6EcHEGY8NZIZTMoorNzbYax9x75KdLmhFNCErxfV1t+Fg2LQVnHFBfRwLwI+xxbVDPHuFbOMO5GfobJHC9qQDvDIhpMwjAfUghT1nSUFq0aW+kTcCZz/LHwBWxbwfvMfNn7hJApkEXkTNfnwf8XdwouXX8rJUMlMUnTefyQ7zbW2/cHDybj8Pt39A4V1kYdUgEAAA==
p506
aVH4sIAAAAAAAEAG2QQQuCQBCF70L/Qby7u1pQiApBHQK7JELXbXfTgXWt3S37+VliJjWH4cHMx3sz8UGYRt7pSYodF8rCGYR2H7VUJoLEq6y9RBi3bYvaOWp0iUNCAnzcZzmrRE19UMZSxYTXMx/CvMcGcWopa5TVlNmBX2CyxGsOqNDUS2eO68Z9CqF3PB2kQdvaZE0JjMoYfy1MgPwiWJeZbTofFyIFMvGsvnV58P/FQsH11t2akr4Cn4Thyn/JsQ01+v7gM2cYTn+XPgFbUVqpUgEAAA==
p507
aVH4sIAAAAAAAEAG2QQQuCQBCF70L/Qby7u1oQiQpBHQK7JELXbXfTgXWt3S37+VliJjWH4cHMx3sz8UGYRt7pSYodF8rCGYR2H7VUJoLEq6y9RBi3bYvaOWp0iUNCAnzcZzmrRE19UMZSxYTXMx/CvMcGcWopa5TVlNmBX2CyxGsOqNDUS2eO68Z9CqF3PB2kQdvaZE0JjMoYfy1MgPwiWJeZbTofFyIFMvGsvnV58P/FQsH11t2akr4Cn4Thyn/JsQ01+v7gM2cYTn+XPgFl4BgnUgEAAA==
p508
aVH4sIAAAAAAAEAG2QTwvCMAzF74LfYey+tpuCMLaBoIfBvCiC19hVDXTdbKv141sd8w+aQ3iQ/HgvydbCtPIKeynKWiiLBxQ6uDVSmRTz8GRtl1LqnCNuQlp9pAljMd2tqg0/iQYiVMaC4iLsmRdhnmNDarDAW2U1cDvwU8pmdF4j2WoIi/EoCLI+hdBlXQzSkGVjqvaIHGRGPxa+gE0nuM/MF94nwFShzEOrLz4P/b+4VXi++FsL1lccsSSB6CHfbai37w8+Hg3D798Vd8my9k5SAQAA
p509
aVH4sIAAAAAAAEAG2QQQuCQBCF74H/Qby7u1oQiC4EdRDskgRdt3XTgXW13TX7+VliFjWH4cHMx3sz8UGYRt7YWYq0EMrCBYR277VUJoLEq6xtI4z7vkf9EjW6xCEhAT7ts5xXomY+KGOZ4sIbmTdhXmODCmYZb5TVjNuJX2GyxpsC0FEzjzoL143HFEKnBZ2kQbvaZE0JnMkYfyx8AXkr+JCZbwcfFyIFMvGs7oY8+P/iUcG1G26lZKzAJ2F49p9yblPNvj+4s5iG37+jD8pnQAdSAQAA
p510
aVH4sIAAAAAAAEAG2QQQuCQBCF74H/Qby7u1oQiApBHQS7JELXbd10YF1td81+fpaYSc1heDDz8d5MeOK6EXd6ETwpuDRwBa7sRy2kDiByKmPaAOO+71G/Ro0qsU+Ih8/HNGMVr6kLUhsqGXdG5kPo91ijghrKGmkUZWbiN5hs8a4AlCvqxNbKtsMxBVdJEU9So0Ot06YERkWIvxYWQNZyNmRm+8HHhkCCiByjuiEP/r+YS7h1w60xGctzie8z9yXnNtXs+4Nbq2m4/F38BPTWAolSAQAA
p511
aVH4sIAAAAAAAEAG2QTwuCQBDF74HfQby7u1oQiApBHQS7JELXbXfTgXW13TX7+Flif6g5DA9mfrw3Ex+EaeWVnqTIuFAWziC0e2ukMhEkXm1tF2E8DAMalqjVFQ4JCfBxnxesFg31QRlLFRPexLwI8xwbxKmlrFVWU2ZnfoXJGm84oFJTL3UWrhtPKYTOeDpLg3aNydsKGJUx/lj4AopOsDEz244+LkQKZOJZ3Y958P/FUsGlH29NyVSBT8KQ+w/5bnO9fX9wZzEPv3+X3gHMzS2UUgEAAA==
p512
aVH4sIAAAAAAAEAG2QTwvCMAzF74LfYey+tpuCMLaBoIfBvCiC19pFDXTdbKv141sd8w+aQ3iQ/HgvydZgWnnlewllDcriAUEHt0Yqk2IenqztUkqdc8RNSKuPNGEsprtVtREnaHiEyliuBIQ98yLMc2xIzS0XrbKaCzvwU8pmdF4j2WoeFuNREGR9CtBlXQzSkGVjqvaIgsuMfix8AZsOhM8sFt4nwFShzEOrLz4P/b+4VXi++FsL1lccsSSB6CHfbai37w8+Hg3D798Vd/J8bxpSAQAA
p513
aVH4sIAAAAAAAEAG2QTwvCMAzF74LfYey+tv4BYWwDQQ8DvSgDrzWrM9B1s63Wj291zCmaQ3iQ/HgvSXbCNPLGj1LkpVAWTyh0cK+lMjGm4dnaNqbUOUfcjDS6olPGJvSw3ezhLGoeoTKWKxBhx7wJ8xobUnLLoVFWc7A9P6dsQZclkkLzMBuPgiDpUgidl1kvDVnXZtNUCFwm9GPhC9i3AnxmWHmfAGOFMg2tvvo89P9iofBy9bdmrKtJxBhA9JRD62vw/cHHo374/bvsAeFFHA5SAQAA
p514
aVH4sIAAAAAAAEAG2QQQuCQBCF74H/Qby7qyUEokJQB8EuidB1W1cdWFfbXbOf35ZYSb3DY2DmY95MdGKq4zdy4SwtmdBQAZP2veVChRA7jdZ9iPE4jmjcoE7WeO15Pj4fs5w2rCUuCKWJoMyZmDehXm2FSqIJ7YSWhOqZD7C3xbsSUCGJk1gr246mFEymZTKXCh1alXU1UMIj/DWwAPKeUZOZ7s0eG0IBPHa0HEwe/H+wEHAdzK2JN8l3jVVuYPxZTTbrs/cHt1Zzc/m75AFhspwAUgEAAA==
p515
aVH4sIAAAAAAAEAG2QQQvCMAyF74L/Yey+tlNBGNtA0MNAL8rAa+yqBrputtX6862OOUVzCA+Sj/eSdCtMI29wkKKohLJ4RKGDey2VSTALz9a2CaXOOeKmpNEnOmEspvvNesfPooYIlbGguAg75k2Y19iQCizwRlkN3Pb8jLI5XVRISg1hPh4FQdqlELqo8l4asqrNujkhB5nSj4UvYNcK7jPzpfcJMFEos9Dqq89D/y+WCi9Xf2vOuoojFjOInnJofQ2+P/h41A+/f5c/AJI2zctSAQAA
p516
aVH4sIAAAAAAAEAG2QTwuCQBDF70HfQby7u/aHQFQI6hDYJRG6butkA+tau2v28bPETGoOw4OZH+/NhAcwlbzzk4RdDsriGUE7j1IqE2DkXqy9BpQ2TUOaOal0QWeM+fS4T1JxgZJ7qIzlSoDbMR/CvMeG5NxyUSmrubA9v6BsRdc5kkxzN55OHCfsUoDe5XEvDdmWJqkKFFyG9GthBKRXEG1msWl9HAwUysi1um7z0P+LmcJb3d4as658j/lL8F5yaH0Nvj/4dNIPx7+Ln1nX5O9SAQAA
p517
aVH4sIAAAAAAAEAG2QzQrCMBCE70LfoeTeJFVBLW1A0IOgF0XwGpPYLqRpTaL18a2W+oPuYRnY/ZjZTbfKVfrKj1qtpDIeTqBseCu1cQlkqPC+TghpmgY3I1zZnAwpjclhs96JQpU8AuM8N0KhjnkR7jl2WHLPRWW85cL3/JjQCZlLwHvLEQsGYZh2KZRdSdZLh5elW1c5CK5T8rHwBexqJdrMYtH6hJAY0Bny9tLmIf8X9wbOl/ZWRruKI0pn0+gh362vt+8PHgz64ffv2B2qe+KpUgEAAA==
p518
aVH4sIAAAAAAAEAG2QTwuCQBDF74LfQby7u/2BQHQhqENgl0Touu1uNrCutbtmHz9LzKTmMDyY+fHeTHKQtlZ3dlJyJ6R2cAZpgkeltI0hDS/OXWOM27ZF7QLVpsRzQmb4uM9yfpEVi0BbxzSXYc98CPseWySYY7zWzjDuBn6JyQqvBaDCsJD6XhAkfQppdoIO0qJtZbO6BM5Ugr8WJkB+lbzLzDedTwCxBpWGzjRdHvx/sdBwa7pbKelrFhHCRfSSYxtq9P3BfW8YTn9Hn9leMxNSAQAA
p519
aVH4sIAAAAAAAEAG2QTQvCMAyG78L+w9i9H1NBGFtB0IOgF0XwWruqga6dbef8+RZH/UADCYHk4X2TciudUTd+VHJVS+3hBNKm90ZpV0CVXbxvC0L6vsf9BBt7JmNKc3LYrHfiIhuOQDvPtZDZwLwI9xw7XHPPhdHecuEjPyV0RuY14L3lGUtGaVoOLqRd1Sy2Di8btzZnEFyV5GPhC9i1UgTPYhF0Uig0qCrztgt+yP/FvYZrF25ldIgchaRoGlpEY4nx1v3Bk1Ecfv+OPQCnicOSUgEAAA==
p520
aVH4sIAAAAAAAEAG2QQQuCQBCF74L/Qby7u1YQiApBHQS7JELXdd10YF1td81+fpaYRc1heDDz8d5MeOK6FTdaCJ6UXBq4AFfOvRFSBxC5tTFdgPEwDGhYo1ZVeEWIj8/HNGM1b6gHUhsqGXcn5k3o11ijkhrKWmkUZWbmN5hs8a4ElCvqxrblOOGUgqukjGep0aHRaVsBoyLEHwtfQNZxNmZm+9HHgUCCiFyj+jEP/r+YS7j2460xmcr3iE8K7ymXNtfi+4Pb1jz8/l38AJHje4JSAQAA
p521
aVH4sIAAAAAAAEAG2QTwuCQBDF74LfQby7u/aHQFQI6iDYJRG6buuWA+tqu2v28bPETGoOw4OZH+/NhEeua3GnZ8GTgksDF+DKeVRC6gAitzSmCTDuug51S1SrK14Q4uPTIc1YySvqgdSGSsbdgfkQ+j3WqKCGsloaRZkZ+RUmG7wtAOWKurFtOU44pOAqKeJRarSvdFpfgVER4q+FGZA1nPWZ2a73cSCQICLXqLbPg/8v5hJubX9rTIbyPeKvL95LTm2syfcHt61xOP9d/ARaAlKmUgEAAA==
p522
aVH4sIAAAAAAAEAG2QQQvCMAyF74P9h7H72k4FcWwDQQ8DvSiC19pWDXTdbKvz51sdVYfmEB4kH+8l+UaYRt7oQYqKC2XhCEJH91oqk0ERn61tM4y7rkPdGDX6hEeEpHi/Xm3ZWdQ0AWUsVUzEPfMmzGtsEKeWskZZTZn1/ASTKZ5zQDtN4zIMoijvUwhd8dJLg5a1WTUnYFTm+GthAGxbwVxmtnA+EWQKZBFbfXV58P/FnYLL1d1akr7ShJDZLHnKT/P18f3Bw8APh78rH5TKoCdSAQAA
p523
aVH4sIAAAAAAAEAG2QzQrCMBCE70LfIfTeJFpBKG1B0INQLxbBa0xiXUhTTVLr4xss8QfdwzKw+zGzm++k7dSNHZXcCKkdnEAadG+VthkU8dm5S0bIMAx4SHFnGjKjdEoO26rmZ9myBLR1THMZj8yLsM+xxYI5xjvtDOMu8HNCF2QpAO8Ni8toglA+ppBmI8ogLV63tuoa4Ezl5GPhC6gvkvvMfOV9EGQaVBE70/s85P/iXsO197eWdKxpQtNUJHMvExpaqLfvDx5NwvD7d+UDHQ28g1IBAAA=
p524
aVH4sIAAAAAAAEAG2QTwuCQBDF74HfQby7u6YQiAlBHQS7JEHXbd10YF1td80+fkuy/aHmMDyY+fHeTHbguhc3eha8qLk0cAGu/HsnpE5hHbTGDCnG0zShKUa9avCSkAif9mXFWt7REKQ2VDIezMyL0M+xRjU1lPXSKMqM4xNMVnhTAzoqGuTewvezOQVXRZ07qdGu02XfAKMiwx8LX0A1cGYzs6318SGVINaBUaPNg/8vHiVcR3trTuaKQhLHlzCxMiSuuXr7/uDewg2/f5c/ACBpSERSAQAA
p525
aVH4sIAAAAAAAEAG2QzQrCMBCE7wXfIfTeJGpBKG1B0ENBL0rBa0xjXUiTmkTr4xss8QfdwzKw+zGzm++E1fLGjlJUjVAOTiAMundS2QyK+OxcnxEyDAMe5liblswonZLDdrPnZ9GxBJR1THERj8yLsM+xxQ1zjGvlDOMu8CmhC7JsANeGxeUkQigfUwhTNWWQFq87u9EtcCZz8rHwBex7wX1mvvI+CDIFsoidufo85P9ireBy9beWdKxpQufpLEm9TGhood6+P/gkCsPv35UPRP4T+FIBAAA=
p526
aVH4sIAAAAAAAEAG2QQQvCMAyF7wP/w+h9bdWBMLaBoIeBXhTBa+3qDHTtbKvz51scVYfmEB4kH+8l+U5YLe/sJEVVC+XgDMLEj1Yqm0GBLs51GSF93+N+jrVpyIzSKTluN3t+ES1LQFnHFBdoYN6EfY0trpljXCtnGHeBTwldkGUN+GAYKidRHOdDCmGqugzS4nVrN7oBzmROvhZGwL4T3GfmK+8TQ6ZAFsiZm89D/i8eFFxv/taSDjVN6DxNk9TLhIYW6uP7g0+iMBz/rnwCQlR+a1IBAAA=
p527
aVH4sIAAAAAAAEAG2QTwvCMAzF74LfYey+tv4BYWwDQQ8DvSgDr7WLM9B1s63Wj291zCmaQ3iQ/HgvSXZgGnnjRwl5CcriCUEH91oqE2Manq1tY0qdc8TNSKMrOmVsQg/bzV6coeYRKmO5EhB2zJswr7EhJbdcNMpqLmzPzylb0GWJpNA8zMajIEi6FKDzMuulIevabJoKBZcJ/Vj4AvYtCJ9ZrLxPgLFCmYZWX30e+n+xUHi5+lsz1tUkYkxA9JRD62vw/cHHo374/bvsAefvcZ1SAQAA
p528
aVH4sIAAAAAAAEAG2QTQvCMAyG7wP/w9h9bacDYWwDQQ+CXhwDr7WLGui62Vbnz7c46gcaSAgkD++b5Dswnbzxg4R1A8riEUGH91Yqk2ERna3tM0qHYSDDjHT6RKeMJXS/3VTiDC2PURnLlYBoZF6EeY4NabjlolNWc2E9n1I2p4sGSa15VE6CMMxHF6DXTelbQ1at2XQnFFzm9GPhC6h6EM6zWDqdEDOFsoisvjo/9P9irfBydbeWbIwkdglx6tqY+eLjrfuDTwI//P5d+QB4OMWIUgEAAA==
p529
aVH4sIAAAAAAAEAG2QQQuCQBCF74H/Qby7qxYEokJQB8EuidB1WzcdWFfbXbOf35aYSc1heDDz8d5MdGKq5Xdy4SwtmdBwBSbtR8OFCiF2aq27EONhGNCwRq2scOB5Pj4fs5zWrCEuCKWJoMwZmQ+h3mOFSqIJbYWWhOqJ32Bvi3cloEISJ7FWth2NKZhMy2SSCh0albUVUMIj/LWwAPKOUZOZ7o2PDaEAHjta9iYP/r9YCLj15tbEG8t3TaDAfcm5TTX7/uDWahouf5c8AYRLWg5SAQAA
p530
aVH4sIAAAAAAAEAG2QQQuCQBCF74H/Qby7qyUEokJQB8EuidB1WzcdWFfbXbOf35aYSc1heDDz8d5MdGKq5Xdy4SwtmdBwBSbtR8OFCiF2aq27EONhGNCwQa2s8NrzfHw+ZjmtWUNcEEoTQZkzMh9CvccKlUQT2gotCdUTH2Bvi3cloEISJ7FWth2NKZhMy2SSCh0albUVUMIj/LWwAPKOUZOZ7o2PDaEAHjta9iYP/r9YCLj15tbEG8t3TaDAfcm5TTX7/uDWahouf5c8AYLhN51SAQAA
p531
aVH4sIAAAAAAAEAG2QQQuCQBCF74H/Qby7qxUFokJQB8EuidB1WzcdWFfbXbOf35aYSc1heDDz8d5MeGKq4Xdy4SwpmNBwBSbtR82FCiByKq3bAOO+71G/Qo0s8dLzfHw+phmtWE1cEEoTQZkzMB9CvccKFUQT2ggtCdUjv8beFu8KQLkkTmwtbDscUjCZFPEoFTrUKm1KoISH+GthBmQtoyYz3RsfGwIBPHK07Ewe/H8xF3DrzK2xN5TvmkAb9yWnNtbk+4Nbi3E4/138BL+Fw1pSAQAA
p532
aVH4sIAAAAAAAEAG2QQQuCQBCF74H/Qby7u1YQiApBHQS7JELXbV11YF1td81+fpaYSc1heDDz8d5McOa6EXd6FTzOuTRQAFf2oxZS+xA6lTGtj3Hf96jfoEaVeE2Ihy+nJGUVr6kLUhsqGXdG5kPo91ijnBrKGmkUZWbit5js8D4HlCnqRNbKtoMxBVdxHk1So2Otk6YERkWAvxYWQNpyNmRmh8HHBl+CCB2juiEP/r+YSbh1w60RGctzCWGF+5Jzm2r2/cGt1TRc/i56AuQ6x9RSAQAA
p533
aVH4sIAAAAAAAEAG2QwQrCMAyG7wPfoey+tlNBGFtB0IMwL4rgtXZVA1032875+BZH1aGBhEDy8f9JvpO2UXd+UnJTSe3gDNKgR620zaCIr861GSF93+N+hhtzIVNKU3LclntxlTVPQFvHtZDxwLwJ+xpbXHHHRaOd4cIFfk7ogiwrwAfDYzaJEMoHF9JsKhZai9e1LZsLCK5y8rUwAvatFN6zWHkdBJkGVcTOdN4P+b940HDr/K2MDpEmPqfJ3LcJDSXER/cHn0RhOP4dewKa7TdVUgEAAA==
p534
aVH4sIAAAAAAAEAG2QQQuCQBCF74H/Qby7qxkEokJQB8EuidB1WzcdWFfbXbOf35aYSc1heDDz8d5MdGKq5Xdy4SwtmdBwBSbtR8OFCiF2aq27EONhGNAQoFZWeO15Pj4fs5zWrCEuCKWJoMwZmQ+h3mOFSqIJbYWWhOqJ32Bvi3cloEISJ7FWth2NKZhMy2SSCh0albUVUMIj/LWwAPKOUZOZ7o2PDaEAHjta9iYP/r9YCLj15tbEG8t3TaDAfcm5TTX7/uDWahouf5c8Abr6GIBSAQAA
p535
aVH4sIAAAAAAAEAG2QTwuCQBDF74HfQby7q/0hEBWCOgh2SYSu27rpwLra7pp9/LbETGoOw4OZH+/NhCemGn4nF86SggkNV2DSftRcqAAip9K6DTDu+x71K9TIEi89z8fnY5rRitXEBaE0EZQ5A/Mh1HusUEE0oY3QklA98mvsbfGuAJRL4sTWwrbDIQWTSRGPUqFDrdKmBEp4iL8WZkDWMmoy073xsSEQwCNHy87kwf8XcwG3ztwae0P5rgm0cV9yamNNvj+4tRiH89/FT7xQdRNSAQAA
p536
aVH4sIAAAAAAAEAG2QQQuCQBCF70L/Qby7u5YgiApBHQS7FELXbd10YF1td81+fpaYSc1heDDz8d5MdOS6EXd6ETwtuDRwBa7sRy2kDiF2KmPaEOO+71G/QY0q8ZoQD58P2YlVvKYuSG2oZNwZmQ+h32ONCmooa6RRlJmJ9zEJ8LYAlCvqJCvLtqMxBVdpkUxSo32ts6YERkWEvxYWwKnlbMjMdoOPDaEEETtGdUMe/H8xl3DrhlsTMpbnEhL47kvObarZ9wdfWdNw+bvkCe0GdwRSAQAA
p537
aVH4sIAAAAAAAEAG2QQQuCQBCF74H/Qby7qxUEokJQB8EuidB1W1cdWFfbXbOf35aYSc1heDDz8d5MeGaq5Xdy5SwpmNBQApP2o+FCBRA5tdZdgPEwDGjYoFZWeO15Pr6c0ozWrCEuCKWJoMwZmQ+h3mOFCqIJbYWWhOqJ32Jvh/cFoFwSJ7ZWth2OKZhMiniSCh0blbYVUMJD/LWwALKOUZOZHoyPDYEAHjla9iYP/r+YC7j15tbYG8t3TaDSfcm5TTX7/uDWahoufxc/AWVLHppSAQAA
p538
aVH4sIAAAAAAAEAG2QQQuCQBCF74H/Qby7qxUIokJQB8EuidB1WzcdWFfbXbOf35aYSc1heDDz8d5MdGKq5Xdy4SwtmdBwBSbtR8OFCiF2aq27EONhGNCwQa2s8NrzfHw+ZjmtWUNcEEoTQZkzMh9CvccKlUQT2gotCdUTv8VegHcloEISJ7FWth2NKZhMy2SSCh0albUVUMIj/LWwAPKOUZOZ7o2PDaEAHjta9iYP/r9YCLj15tbEG8t3TaDAfcm5TTX7/uDWahouf5c8AYE0gdRSAQAA
p539
aVH4sIAAAAAAAEAG2QTwvCMAzF74LfYey+tlNBHNtA0MNAL4rgtXZxC3Sdtp3z41sc9Q+aQ3iQ/HgvSXdgWnnjJwlFCcriGUEH90Yqk2AW1tZeEkr7vif9lLS6ohPGYnrcbvaihoZHqIzlSkA4MC/CPMeGlNxy0SqrubCen1E2p8sSyUHzMB+PgiAdUoAuytxLQ9aN2bQVCi5T+rHwBewvIFxmsXI+ASYKZRZa3bk89P/iQeG1c7fmbKg4YvECopmTEfPN19v3Bx+P/PD7d/kDyMmpzFIBAAA=
p540
aVH4sIAAAAAAAEAG2QTwvCMAzF78K+w9h9baeCMLaBoIfBvCiC19jVGeg6bTvnx7c46h80h/Ag+fFekm2F6eQNjlKUtVAWTyh0eG+lMinm0dnaS0rpMAxkmJFON3TKWEIPm2rHz6KFGJWxoLiIRuZFmOfYkBos8E5ZDdx6fk7Zgi5rJHsNURFMwjAbUwhd1oWXhqxbU3UNcpAZ/Vj4AnYXwV1mvnI+IaYKZR5Z3bs89P/iXuG1d7cWbKwkZgmweO5kzHzz9fb9wYOJH37/rngAhnmmCVIBAAA=
p541
aVH4sIAAAAAAAEAG2QzQrCMBCE74LvEHrPT1WQlrYg6EHQi6XgNaZRF9JUk2h9fIMlatE9LAO7HzO72U7aVt35Qcl1LbWDI0iDHo3SNoU8Ojt3SSntuo50U9KaE50wFtP9dlOKs2w4Bm0d10JGPfMm7GtsSc0dF612hgsX+Bllc7qogVSGR8V4hFDWp5BmXRdBWrJq7KY9geAqo18LA6C8SOEzi6X3QZBqUHnkzM3nof8XKw3Xm7+1YH3FmMVJgmdeYhZaqI/vDz4eheHwd8UTX1Xe8VIBAAA=
p542
aVH4sIAAAAAAAEAG2QTwvCMAzF74LfYey+tlNBHNtA0MNAL4rgtXZxC3Sdtp3z41sc9Q+aQ3iQ/HgvSXdgWnnjJwlFCcriGUEH90Yqk2AW1tZeEkr7vif9lLS6ohPGYnrcbvaihoZHqIzlSkA4MC/CPMeGlNxy0SqrubCen1E2p8sSyUHzMB+PgiAdUoAuytxLQ9aN2bQVCi5T+rHwBewvIFxmsXI+ASYKZRZa3bk89P/iQeG1c7fmbKg4YvECopmTEfPN19v3Bx+P/PD7d/kDyMmpzFIBAAA=
p543
aVH4sIAAAAAAAEAG2QzQrCMBCE7wXfofSen6oglrYg6EHQi6XgNaZRF9JUk2h8fIMlatE9LAO7HzO7+U6YTt7ZQYp1I5SFIwgdP1qpTAZFcrb2khHinMNugjt9ImNKU7Lfbip+Fi1DoIxlioukZ96EeY0NbphlvFNWM24DPyV0RhYN4FqzpBxFcZz3KYReN2WQBq9as+lOwJnMydfCAKgugvvMfOl9YsgUyCKx+ubzkP+LtYLrzd9a0r5SRNP5AU29RDS0UB/fH3wUheHwd+UT8NKG0VIBAAA=
p544
aVH4sIAAAAAAAEAG2QTwvCMAzF78K+w9h9baeCMLaBoIfBvCiC19jVGeg6bTvnx7c46h80h/Ag+fFekm2F6eQNjlKUtVAWTyh0eG+lMinm0dnaS0rpMAxkmJFON3TKWEIPm2rHz6KFGJWxoLiIRuZFmOfYkBos8E5ZDdx6fk7Zgi5rJHsNURFMwjAbUwhd1oWXhqxbU3UNcpAZ/Vj4AnYXwV1mvnI+IaYKZR5Z3bs89P/iXuG1d7cWbKwkZgmweO5kzHzz9fb9wYOJH37/rngAhnmmCVIBAAA=
p545
aVH4sIAAAAAAAEAG2QQQvCMAyF7wP/w9h9becEYcyBoIfBvCiC19hVDXSdtp3z51scVYfmEB4kH+8l+VaYVt7hKEVZC2XxhEKHj0Yqk+Eiulh7zSjt+570KWn1mU4ZS+hhU+34RTQQozIWFBfRwLwJ8xobUoMF3iqrgVvPzyib02WNZK8hKiZBGOZDCqHLuvDSkHVjqvaMHGROvxZGwO4quMvMV84nxEyhXERWdy4P/b+4V3jr3K0FGyqJWQJpPHMyZr75+vj+4JPAD8e/K56FrBBAUgEAAA==
p546
aVH4sIAAAAAAAEAG2QQQuCQBCF70H/Qby7u1ZQiApBHQK7JELXbZ1sYF1rd81+fpaYSc1heDDz8d5MeABTyTs/SdjloCyeEbTzKKUyAUbuxdprQGnTNKSZk0oXdMaYT4/7JBUXKLmHyliuBLgd8yHMe2xIzi0XlbKaC9vzC8qWdJ0jyTR34+nEccIuBehdHvfSkG1pkqpAwWVIvxZGQHoF0WYWm9bHwUChjFyr6zYP/b+YKbzV7a0x68r3mL8C7yWH1tfg+4NPJ/1w/Lv4CTwfmyZSAQAA
p547
aVH4sIAAAAAAAEAG2QQQuCQBCF70H/Qby7u1oQiC4EdRDsUgRdt3XVgXW13TX7+VliJjWH4cHMx3sz0VGYWt7ZVYokE8pCDkI7j0oqE0LsltY2IcZd16FuhWpd4IAQH18O6YmXomIeKGOZ4sIdmA9h3mODMmYZr5XVjNuRX2OywdsM0Fkzly4XjhMNKYROMjpKg/aVSesCOJMR/lqYAadG8D4z3/U+DoQKZOxa3fZ58P/Fs4Jb299KyVC+R4J87b3k1MaafH/w5WIczn9Hn/iVaYNSAQAA
p548
aVH4sIAAAAAAAEAG2QzQrCMBCE74LvUHJvkvqDUNqCoAehXhTBa5rEupAmmqTWx7daqhbdwzKw+zGzm+ykM+rGCiU3QmoPJ5A2uFdKuxhSdPb+EhPSNA1uptjYkkwojchxm+/5WVYsBO0801yijnkT7jV2WDDPuNHeMu57fkbogiwF4INlKBuPgiDpUki7EVkvHV5XLjclcKYS8rUwAPYXydvMfNX6BBBrUCnytm7zkP+LBw3Xur01o11FIY2KefiUn9bXx/cHH4/64fB32QMCaOBhUgEAAA==
p549
aVH4sIAAAAAAAEAG2QQQuCQBCF74L/Qby7u1YQiQpBHQS7JELXbd1yYF1td81+fpaYSc1heDDz8d5MeOS6Fnd6FjwpuDRwAa6cRyWkDiByS2OaAOOu61C3RLW64gUhPj4d0oyVvKIeSG2oZNwdmA+h32ONCmooq6VRlJmRX2GyxtsCUK6oG9uW44RDCq6SIh6lRvtKp/UVGBUh/lqYAVnDWZ+Z7XofBwIJInKNavs8+P9iLuHW9rfGZCjfI/5l473k1MaafH9w2xqH89/FT6VKFS1SAQAA
p550
aVH4sIAAAAAAAEAG2QywrCMBBF94L/ULpvkvpAKG1B0EVBN4rgdkxjO5CmmqTWzzdY4gOdxXBh5nDvTLoTppU3OElRlEJZPKPQwb2RyiSYhbW1l4TSvu9JPyWtruiEsZget5s9r0UDESpjQXERDsyLMM+xISVY4K2yGrj1/IyyBV2WSA4awnw8CoJ0SCF0UeZeGrJuzKatkINM6cfCF7C/CO4y85XzCTBRKLPQ6s7lof8XDwqvnbs1Z0PFEYthHs2cjJhvvt6+P/h45Iffv8sfgwZ901IBAAA=
p551
aVH4sIAAAAAAAEAG2QQQuCQBCF74L/Qby7u1ZQiApBHQS7JELXbd1yYF1td81+fpaYSc1heDDz8d5MeOS6Fnd6FjwpuDRwAa6cRyWkDiByS2OaAOOu61C3RLW64gUhPj4d0oyVvKIeSG2oZNwdmA+h32ONCmooq6VRlJmRX2GyxtsCUK6oG9uW44RDCq6SIh6lRvtKp/UVGBUh/lqYAVnDWZ+Z7XofBwIJInKNavs8+P9iLuHW9rfGZCjfI/7m4r3k1MaafH9w2xqH89/FTz/KLW9SAQAA
p552
aVH4sIAAAAAAAEAG2QzQrCMBCE74LvUHpvklZFKG1B0INQL4rgNaZpu5AmNUmNj2+11B90D8vA7sfMbrLnRokrPQu+Lbi0UALX3q0R0sSQ+rW1bYyxcw65GVK6whEhIT7t8gOreUMDkMZSybg/MC/CPMcGFdRSpqTVlNmRn2OyxKsC0FFTP5tOPC8ZUnC9LbJRGrRpTK4qYFQk+GPhCzi0nPWZ2br38SCWIFLf6q7Pg/8vHiVcuv7WjAwVBiQqF8FDvttYb98ffDoZh9+/y+7GJCsNUgEAAA==
p553
aVH4sIAAAAAAAEAG2QQQvCMAyF74L/YfS+tlNRGNtA0IMwL4rgtWvrDHSttp3z5zsdU4fmEB4kH+8lyU46o26sUHIjpPZwAmmDe6W0iyFFZ+8vMSFN0+Bmio0tyYTSiBy3+Z6fZcVC0M4zzSXqmDfhXmOHBfOMG+0t477nZ4QuyFIAPliGsvEoCJIuhbQbkfXS4XXlclMCZyohXwsDYH+RvM3MV61PALEGlSJv6zYP+b940HCt21sz2lUU0qiYh0/5aX19fH/w8agfDn+XPQABvVYoUgEAAA==
p554
aVH4sIAAAAAAAEAG2Q0QuCMBDG34P+B/HdbVYQiApBPQT1kgS9zjn1YE7bVuvPz5JlUvdwfHD34/vu4hPXrbjTXPB9waWBErjyHo2QOoLEr43pIoyttcguUasqvCAkxJfjIWM1b2gAUhsqGfcH5kPo91ijghrKWmkUZcbxK0zWeFMAOivqp/OZ58VDCq72ReqkRrtGH9oKGBUx/lqYAFnHWZ+ZbXsfDyIJIvGNuvV58P/Fs4Trrb81JUOFAQnLPHjJsbkafX/w+cwNp79LnwrNTQ1SAQAA
p555
aVH4sIAAAAAAAEAG2QTwvCMAzF74LfYey+tlNBGdtA0MNAL4rgNXZ1C3Sdtp3z41sc9Q+aQ3iQ/HgvSXfCtPIGJymKUiiLZxQ6uDdSmQSzsLb2klDa9z3pp6TVFZ0wFtPjdrPntWggQmUsKC7CgXkR5jk2pAQLvFVWA7een1E2p8sSyUFDmI9HQZAOKYQuytxLQ9aN2bQVcpAp/Vj4AvYXwV1mvnI+ASYKZRZa3bk89P/iQeG1c7fmbKg4YjEsopmTEfPN19v3Bx+P/PD7d/kD8OWVoFIBAAA=
p556
aVH4sIAAAAAAAEAG2QTwvCMAzF78K+w9h9baeCMLaBoIfBvCiC19jVGeg6bTvnx7c46h80h/Ag+fFekm2F6eQNjlKUtVAWTyh0eG+lMinm0dnaS0rpMAxkmJFON3TKWEIPm2rHz6KFGJWxoLiIRuZFmOfYkBos8E5ZDdx6fk7Zgi5rJHsNURFMwjAbUwhd1oWXhqxbU3UNcpAZ/Vj4AnYXwV1mvnI+IaYKZR5Z3bs89P/iXuG1d7cWbKwkZglAPHcyZr75evv+4MHED79/VzwAYgY5R1IBAAA=
p557
aVH4sIAAAAAAAEAG2QQQvCMAyF74L/Yey+tupAGHMg6GEwL4rgteuiBrputp3z51scVYfmEB4kH+8l6R5MI++8lJBXoCyeEXTwqKUyCa7Cq7VtQmnf96RfkEZf6JyxGT3tioO4Qs0jVMZyJSAcmDdhXmNDKm65aJTVXFjPx5Qt6bpCctQ8zKaTIEiHFKDzKvPSkG1tiuaCgsuUfi2MgEMLwmUWG+cTYKJQrkKrO5eH/l88Krx17taMDTWLWFxCFDsZMd98fXx/8OnED8e/y54FbS03UgEAAA==
p558
aVH4sIAAAAAAAEAG2QTwuCQBDF74HfQby7u5YQiApBHQS7JEHXbd10YF1td80+fkuy/aHmMDyY+fHeTHrguhc3eha8qLk0cAGu/HsnpE4gC1pjhgTjaZrQtEK9avCSkAif9mXFWt7REKQ2VDIezMyL0M+xRjU1lPXSKMqM42NM1nhTAzoqGuTewvfTOQVXRZ07qdGu02XfAKMixR8LX0A1cGYzs6318SGRILLAqNHmwf8XjxKuo701J3NFIYkZCWMrQ+Kaq7fvD+4t3PD7d/kDwIPE7FIBAAA=
p559
aVH4sIAAAAAAAEAG2QzQrCMBCE70LfofTeJNWCWNqAoIeCXhTBa0yiLqRpTaL18Q2W+IPuYRnY/ZjZLTfSturGDkrWQmoHR5AmvjdK2wKq5OxcV2Dc9z3qJ6g1JzwmJMP79WrLz7JhKWjrmOYyGZgXYZ9jiwRzjLfaGcZd4HNMpnguAO0MS2g0iuNySCFNLWiQFi0bu2pPwJkq8cfCF7DtJPeZ+cL7xFBoUFXizNXnwf8XdxouV38rJUNlKckPszT3MiWhhXr7/uDRKAy/f0cfkvFaClIBAAA=
p560
aVH4sIAAAAAAAEAG2QzQrCMBCE74LvUHpvkmpBKG1B0EOhXhTBa5pGXUiTmkTj4xss8QfdwzKw+zGzW2y5UeJGW8HrjksLR+A6uvdCmhzK+GztkGPsnENujpQ+4RkhKT5smh07854mII2lkvF4ZF6EeY4N6qilTEmrKbOBzzBZ4GUHaK9pXE0nUVSMKbiuuypIg9a9adQJGBUF/lj4AnYDZz4zW3mfCHIJooytvvo8+P/iXsLl6m+tyFhpQrK2TTIvExJaqLfvDz6dhOH376oHPXYCKlIBAAA=
p561
aVH4sIAAAAAAAEAG2QTwuCQBDF74HfQby7u5YQiApBHQK7JELXbV11YF1rd80+fkuy/aHmMDyY+fHeTHrkehA3ehZ8X3NpoAGu/HsvpE4gCzpjLgnG0zShaYUG1eIlIRE+HYqSdbynIUhtqGQ8mJkXoZ9jjWpqKBukUZQZx8eYrPGmBlQpGuTewvfTOQVX+zp3UqNdr4uhBUZFij8WvoDywpnNzLbWx4dEgsgCo0abB/9frCRcR3trTuaKQhI1TRhbGRLXXL19f3Bv4Ybfv8sf34oJclIBAAA=
p562
aVH4sIAAAAAAAEAG2QywrCMBBF90L/oXSfR1UQShsQdCHoRhHcxjTqQJrUJLV+vsESH+gshgszh3tnyq10Rt34UclVLbWHE0ib3hulXQFVdvG+LQjp+x73E2zsmYwpzclhs96Ji2w4Au0810JmA/Mi3HPscM09F0Z7y4WP/JTQGZnXgPeWZywZpWk5pJB2VbMoHV42bm3OILgqycfCF7BrpQiZxSL4pFBoUFXmbRfykP+Lew3XLtzK6FA5oiESmgaJaGyx3r4/eDKKw+/fsQe2/BtzUgEAAA==
p563
aVH4sIAAAAAAAEAG2QQQuCQBCF74L/Qby7u1kQiC4EdRDqkghdt3W1gXW13S37+VliJjWH4cHMx3sz8VGYRt7ZWYq0EMpCCUJ7j1oqE0HiX6xtI4y7rkPdEjW6wiEhC3w67DN+ETULQBnLFBf+wHwI8x4bVDDLeKOsZtyO/AqTNd4UgHLNfOo6nhcPKYROCzpKg3a12TcVcCZj/LUwA7JW8D4z3/Y+HkQKZOJbfevz4P+LuYLrrb+VkqEWAQnDMnjJqY01+f7grjMO57+jT/Gp2VNSAQAA
p564
aVH4sIAAAAAAAEAG2QQQuCQBCF74L/Qby7u1oQiC4EdRDskgRdt3XTgXW13S37+VliJTWH4cHMx3szyV6YVt7YSYqsFMrCGYT27o1UJobUr63tYoz7vkf9ArW6whEhIT7u8oLXomEBKGOZ4sIfmTdhXmODSmYZb5XVjNuJX2KywusS0EEzn7qO5yVjCqGzkk7SoG1j8rYCzmSCvxZmQNEJPmTmm8HHg1iBTH2rr0Me/H/xoOByHW6lZKwwINGCBE/5aVN9fH9w15mG89/RBzeShsFSAQAA
p565
aVH4sIAAAAAAAEAG2QywrCMBBF90L/IXSfR7WglLYg6KKgG0VwG9OoA2lak2j9fIMlPtBZDBdmDvfO5BtpW3XjByWrWmoHR5AG3RulbQZFfHauyyjt+570E9KaEx0zltD9erUVZ9lwDNo6roWMB+ZF2OfYkpo7LlrtDBcu8CllUzqvgewMj8tohFA+pJCmqssgLVk2dtWeQHCV04+FL2DbSeEzi4X3QZBpUEXszNXnof8XdxouV39ryYZKMEvFDKdeYhZaqLfvDx6NwvD7d+UDth/3RVIBAAA=
p566
aVH4sIAAAAAAAEAG2QTwvCMAzF78K+w9h9bdWBMLaBoIeBXhyC19jVGei62Vbnx7c46h80h/Ag+fFeku2E6eQNjlKUtVAWTyh0eG+lMinm0dnaPqV0GAYyzEmnGzpjbEoP203Fz6KFGJWxoLiIRuZFmOfYkBos8E5ZDdx6PqFsQZc1kr2GqAgmYZiNKYQu68JLQ9at2XQNcpAZ/Vj4AqpecJeZr5xPiKlCmUdWX10e+n9xr/BydbcWbKxpzBIOceJkzHzz9fb9wYOJH37/rngAJPxbolIBAAA=
p567
aVH4sIAAAAAAAEAG2QzQrCMBCE70LfofTeJNWCWGpA0INQL4rgNSbRLqRpTaL18Q2W+IPuYRnY/ZjZLbfSturGjkquhdQOTiBNfG+UtgXMk9q5rsC473vUT1BrznhMSIYPm2rHa9mwFLR1THOZDMyLsM+xRYI5xlvtDOMu8DkmU7wQgPaGJTQaxXE5pJBmLWiQFq0aW7Vn4EyV+GPhC9h1kvvMfOl9Yig0qHnizNXnwf8X9xouV38rJUNlqQ80S3MvUxJaqLfvDx6NwvD7d/QBH4sCxVIBAAA=
p568
aVH4sIAAAAAAAEAG2QzQrCMBCE74LvUHpvErUilBoQ9FCoF0vBa0yiLqSpJqn18Q2W+IPuYRnY/ZjZzXfSturGDkoWQmoHR5AmujdK2wyW8dm5S4Zx3/eon6HWnPCUkAneb8uKn2XDEtDWMc1lPDAvwj7HFgnmGG+1M4y7wKeYLPBKAKoNi+l4FEX5kEKaQtAgLdo0tmxPwJnK8cfCF1BdJPeZ+dr7RJBpUMvYmc7nwf8Xaw3Xzt9KyVCThJC5SFIvExJaqLfvDz4eheH37+gDrPnYt1IBAAA=
p569
aVH4sIAAAAAAAEAG2QTwuCQBDF74HfQby7u5oQiAlBHQS7JEHXdd1yYF1td80+fkuy/aHmMDyY+fHeTHbguhc3WgteNFwaOANX/r0TUqewDlpjhhTjaZrQtES9uuCYkAif9mXFWt7REKQ2VDIezMyL0M+xRg01lPXSKMqM4xNMVnjTADoqGuTewvezOQVXRZM7qdGu02V/AUZFhj8WvoBq4MxmZlvr40MqQawDo0abB/9fPEq4jvbWnMwVhSSu6zCxMiSuuXr7/uDewg2/f5c/ACAIW0pSAQAA
p570
aVH4sIAAAAAAAEAG2Q0QuCMBDG34P+B/HdbZURiQpBPQT2kgi9rrn0YM7aZvbnN5JVUvdwfHD34/vu4iPXrbjTs+D7kksDF+DKezRC6ggSvzbmGmHc9z3qF6hVFZ4TMsOnQ5azmjc0AKkNlYz7A/Mm9GusUUkNZa00ijLj+BCTFd6UgApF/XQ68bx4SMHVvkyd1GjX6KytgFER46+FEZBfObOZ2db6eBBJEIlvVGfz4P+LhYRbZ29NyVCzgJD1MgitDIhrrj6+P/h04obj36VPNxHX8VIBAAA=
p571
aVH4sIAAAAAAAEAG2QzQrCMBCE70LfofTeJK2CUNqCoIeCXiyC15jEdiFNaxKtj2+wxB90D8vA7sfMbr4Xppc3epKi4kJZOIPQ4b2TymRQRK21Q4bxOI5onKNeNzglJMHH3bZmrehoDMpYqpiIJuZFmOfYIE4tZb2ymjLr+QUmS7zigA6aRmUwC8N8SiF0xUsvDdp0Zts3wKjM8cfCF1APgrnMbO18QsgUyCKy+ury4P+LBwWXq7u1JFMlMUlPPF44GRPffL19f/Bg5offvysfJqI22VIBAAA=
p572
aVH4sIAAAAAAAEAG2Q0QuCMBDG34P+B/HdbZUUiQpBPQT2kgi9rrn0YM7aZvbnN5JVUvdwfHD34/vu4iPXrbjTs+D7kksDF+DKezRC6ggSvzbmGmHc9z3qF6hVFZ4TMsOnQ5azmjc0AKkNlYz7A/Mm9GusUUkNZa00ijLj+BCTFd6UgApF/XQ68bx4SMHVvkyd1GjX6KytgFER46+FEZBfObOZ2db6eBBJEIlvVGfz4P+LhYRbZ29NyVCzgJD1MgitDIhrrj6+P/h04obj36VPNMRhuFIBAAA=
p573
aVH4sIAAAAAAAEAG2QTwvCMAzF78K+w9h9bacDYWwDQQ+CXhwDr7WLGui62Vbnx7c46h80h/Ag+fFeku/AdPLGDxLWDSiLRwQd3lupTIZFdLa2zygdhoEMM9LpE50yltD9dlOJM7Q8RmUsVwKikXkR5jk2pOGWi05ZzYX1fErZnC4aJLXmURlMwjAfU4BeN6WXhqxas+lOKLjM6cfCF1D1IFxmsXQ+IWYKZRFZfXV56P/FWuHl6m4t2VhJzKbA4tTJmPnm6+37gwcTP/z+XfkAQjVtZVIBAAA=
p574
aVH4sIAAAAAAAEAG2QTwvCMAzF74N9h7H72voHlDEHgh4GelEEr7GrGui62XbOj29xVB2aQ3iQ/HgvyXbC1PIOJymKUiiLZxQ6elRSmRQX8dXaJqW06zrSTUitL3TM2Iget5s9v4oKElTGguIi7pk3YV5jQ0qwwGtlNXDr+SllM7oskRw0xHkYRFHWpxC6KHMvDVlXZlNfkIPM6NfCANg3grvMfOV8IkwVykVsdevy0P+LB4W31t2as75GCWMwT6ZOJsw3Xx/fHzwM/HD4u/wJ1fM2XVIBAAA=
p575
aVH4sIAAAAAAAEAG2QzQrCMBCE74LvUHpvklZBLG1B0INQL4rgNSaxXUjTmqTWxzdY4g+6h2Vg92NmN9sL08obPUux5UJZuIDQwb2RyqSQh7W1XYrxMAxomKFWVzghJManXXlgtWhoBMpYqpgIR+ZFmOfYIE4tZa2ymjLr+TkmC7zigI6ahsV0EgTZmELoLS+8NGjTmLKtgFGZ4Y+FL+DQCeYys7XzCSBVIPPQ6t7lwf8Xjwquvbu1IGPFEUnOy2juZER88/X2/cGnEz/8/l3xAI+PA2pSAQAA
p576
aVH4sIAAAAAAAEAG2QQQvCMAyF7wP/w9h9bZ0DYcyBoIeBXpSB19hVDXTdbKvz51scVYfmEB4kH+8l+U6YVt7hKEVZC2XxhEKHj0Yqk+EiuljbZZT2fU/6GWn1mSaMTelhu9nzi2ggRmUsKC6igXkT5jU2pAYLvFVWA7eeTymb02WNpNIQFZMgDPMhhdBlXXhpyLoxm/aMHGROvxZGwL4T3GXmK+cTYqZQLiKrby4P/b9YKbze3K0FG2oaswSSOHUyZr75+vj+4JPAD8e/K56VIcYTUgEAAA==
p577
aVH4sIAAAAAAAEAG2QzQrCMBCE70LfofTeJK2CUNqCoIeCXiyC15jEdiFNaxKtj2+wxB90D8vA7sfMbr4Xppc3epKi4kJZOIPQ4b2TymRQRK21Q4bxOI5onKNeNzglJMHH3bZmrehoDMpYqpiIJuZFmOfYIE4tZb2ymjLr+QUmS7zigA6aRmUwC8N8SiF0xUsvDdp0Zts3wKjM8cfCF1APgrnMbO18QsgUyCKy+ury4P+LBwWXq7u1JFMlMUn5Ml44GRPffL19f/Bg5offvysfYHGtuVIBAAA=
p578
aVH4sIAAAAAAAEAG2QTwvCMAzF74LfYey+ttOBMLaBoAdBLw7Ba+zqFui62Vbnx7c46h80h/Ag+fFeku2F6eQNTlJsKqEsnlHo4N5KZVLMw8baPqV0GAYyzEmnazpjLKbH3bbkjWghQmUsKC7CkXkR5jk2pAILvFNWA7eeTyhb0GWF5KAhLKaTIMjGFEJvqsJLQ9at2XY1cpAZ/Vj4AspecJeZr5xPgKlCmYdWX10e+n/xoPBydbcWbKw4YjOYR4mTEfPN19v3B59O/PD7d8UDq5CEnVIBAAA=
p579
aVH4sIAAAAAAAEAG2RW2uDMBTH3wv9DqUPfYtJNGrXdkK1jgkrlJbC3iQz0Qa8zWRzMPbdGy29bXs5nNvvnP/hLLZcVvknfct5xHipRCp4M/oq8lLOxOP4oFQ9g7BtW6O1jKrJoIkQhq/rl11y4AUFopSKlgkfn5gLIfuyNBhVNKlK1dBEnXkCkQuXTBj7ho694WA0WpxU8CZi3tmVxkYbIZVWtaZ1LcpsAW/67rhdzRMtPVnpdd4kV/NtVak4zHmh6Umm5l1us3qOI8WLLl5u1nFQ9eKVjNNcZAfV9cDbpi7R+RHrom8TBSb2HQx8FISABBYB/spxwJMdEtclNg599NMPuUJ9+FvM9Y473f9etC/F+4f+jWdZroVtgkCKTQ7YlGGgV05ByuwHJ00tghj9O/iCDwfn4v2vvSOJFJIHAgIAAA==
p580
aVH4sIAAAAAAAEAG2RXWvCMBSG7wX/g3jhXZr0I/1QV6jVsYKCKMLuSkyiBtq0a7J1MPbf11b82nYTznvOeU7ew5luuCqyD7LPeMK41OIgeDX4zDOpxuJpeNK6HENY17VR20ZRHaGFkAlfV8stPfGcACGVJpLy4Zm5EqorK4MRTWghdUWovvAORB6MmDB2FRmG/d5gMD274FXCwkuojHXzCKUbVytSlkIep/Cu74Hblpw21um8+S4cZXqyKQqdLjKeN/ToqCdtbj1/SRPN81ZH61UaF515rdL5sq3D+4Y20cYJa9XXAnl+7KIYREGAgOPHJoieXRc42LfMGLt4hmbf3ZAb1MnfRm47PHj+d5udFG/vzV1CB1kBMhkGFj5wgH1MAeO2BezggG1k7Z3AI38HX/F+71J8vHP4A3VMwkb+AQAA
p581
aVBaro-Corrected Altitude (ft)
p582
aVAltitude Loss (Baro-Corrected Altitude) (ft)
p583
aVMeasurement: Maximum Baro-Corrected Altitude (ft)
p584
aVMeasurement: Maximum Baro-Corrected Altitude prior to First Go-Around (ft)
p585
aVMeasurement: Baro-Corrected Altitude (QNH) Error From Takeoff Altimeter Setting Error (ft)
p586
aVMeasurement: Baro-Corrected Altitude (QNH) Error From Landing Altimeter Setting Error (ft)
p587
aVBest Available MSL Altitude (ft)
p588
aVMeasurement: Best Available MSL Altitude at Liftoff (feet)
p589
aVMeasurement: Best Available MSL Altitude at Touchdown (feet)
p590
aVAcceleration (normal load-factor) (g's)
p591
aVAirspeed (calibrated; 1 or Only) (knots)
p592
aVGround Speed (best avail) (knots)
p593
aVUncertainty of Ground Speed (best avail) (knots)
p594
aVMach Number
p595
aVMach Number (ADC 2)
p596
aVVertical Speed (best avail) (ft/min)
p597
aVPitch Command (deg+=Nose up)
p598
aVPitch Command (F/O) (deg+=Nose up)
p599
aVPitch Command (Capt) (deg+=Nose up)
p600
aVMeasurement: Pitch Commands Mechanically-Linked (1=linked)
p601
aVPilot Pitch Commands are Mechanically Linked Together (1 = linked)
p602
aVMeasurement: Pilot Flying Takeoff (Pitch Command Method) (1=Capt; 0=F/O)
p603
aVMeasurement: Pilot Flying Landing (Pitch Command Method) (1=Capt; 0=F/O)
p604
aVMeasurement: Pilot Flying First Approach (Pitch Command Method) (1=Capt; 0=F/O)
p605
aVMeasurement: Standard Deviation of F/O Pitch Command during Takeoff (deg+=Nose up)
p606
aVMeasurement: Standard Deviation of Captain Pitch Command during Takeoff (deg+=Nose up)
p607
aVMeasurement: Standard Deviation of F/O Pitch Command during First Approach (deg+=Nose up)
p608
aVMeasurement: Standard Deviation of Captain Pitch Command during First Approach (deg+=Nose up)
p609
aVMeasurement: Standard Deviation of F/O Pitch Command: Last Approach and Landing (deg+=Nose up)
p610
aVMeasurement: Standard Deviation of Captain Pitch Command: Last Approach and Landing (deg+=Nose up)
p611
aVRoll Command (deg+=RWD)
p612
aVRoll Command (F/O) (deg+=RWD)
p613
aVRoll Command (Capt) (deg+=RWD)
p614
aVPilot Roll Commands are Mechanically Linked Together (1 = linked)
p615
aVSpeed Brake Handle (deg)
p616
aVSpeed Brake Handle Position for Arming the Ground Spoilers
p617
aVMax Speed Brake Handle Position for Extending the Speed Brakes
p618
aVMin Speed Brake Handle Position for Extending the Speed Brakes
p619
aVMax Speed Brake Handle Position for Extending the Speed Brakes rollout 
p620
aVRudder Position (lower) (deg+=TER)
p621
aVRudder Position (upper) (deg+=TER)
p622
aVFuel Flow (left inbd eng) (kg/hr)
p623
aVFuel Flow (right inbd eng) (kg/hr)
p624
aVFuel Flow Selection Status (left inbd eng)
p625
aVFuel Flow Selection Status (right inbd eng)
p626
aVFuel Temperature (left inbd tank) (deg C)
p627
aVHP Fuel Valve (left inbd eng) (1 = open)
p628
aVHP Fuel Valve (right inbd eng) (1 = open)
p629
aVBrake Temperature (left inbd) (deg C)
p630
aVBrake Temperature (right inbd) (deg C)
p631
aVHydraulic Pressure (A, 1, or left) (psi)
p632
aVHydraulic Pressure (B, 2, or center) (psi)
p633
aVHydraulic Pressure (C, 3, or right) (psi)
p634
aVBest Available Latitude (deg)
p635
aVBest Available Longitude (deg)
p636
aVGreat-Circle Distance from Landing Airport (nm)
p637
aVEngine Anti-ice (left inbd) (1 = on)
p638
aVEngine Anti-ice (right inbd) (1 = on)
p639
aVIce Detected (left inbd eng) (1 = ice)
p640
aVIce Detected (right inbd eng) (1 = ice)
p641
aVWing Anti-ice (left) (1 = on)
p642
aVWing Anti-ice (right) (1 = on)
p643
aVCabin Altitude (ft)
p644
aVCabin Altitude Limit (ft)
p645
aVCabin Altitude Rate (ft/min)
p646
aVTimepoint: Maximum Cabin Altitude While Airborne
p647
aVCabin Altitude Limit for High Altitude Airports (ft)
p648
aVMeasurement: Maximum Cabin Altitude While Airborne (ft)
p649
aVCabin Pressure (PSI)
p650
aVCabin Pressure (hPa (mbar))
p651
aVCabin Pressure Warning (1 = warn)
p652
aVDifferential Cabin Pressure (PSI)
p653
aVMaximum Negative Differential Cabin Pressure (PSI)
p654
aVDifferential Cabin Pressure Safety Relief Valve Setting (PSI)
p655
aVTimepoint: Minimum Differential Cabin Pressure While Airborne
p656
aVTimepoint: Maximum Differential Cabin Pressure While Airborne
p657
aVMeasurement: Minimum Differential Cabin Pressure While Airborne (PSI)
p658
aVMeasurement: Maximum Differential Cabin Pressure While Airborne (PSI)
p659
aVMeasurement: Minimum Differential Cabin Pressure Margin to Safety Valve (PSI)
p660
aVOutflow Valve Position (1, aft or only) (% Open)
p661
aVOutflow Valve Position (2, fwd) (% Open)
p662
aVBleed Valve Posn (left inbd) (1 = open)
p663
aV2.5 Bleed Valve Posn (left inbd) (% open)
p664
aVBleed Valve Posn (right inbd) (1 = open)
p665
aV2.5 Bleed Valve Posn (right inbd) (% open)
p666
aVEngine Bleed-Duct Pressure (left) (PSI)
p667
aVEngine Bleed-Duct Pressure (right) (PSI)
p668
aVEGT (left inbd eng) (deg C)
p669
aVEGT (left inbd eng) 8Hz (deg C)
p670
aVEGT (left inbd eng) accel / decel flag
p671
aVEGT (left inbd eng) (sample 1/sec) (deg C)
p672
aVEGT (right inbd eng) (deg C)
p673
aVEGT (right inbd eng) accel / decel flag
p674
aVEGT (right inbd eng) (sample 1/sec) (deg C)
p675
aVHPT ACC Valve Position (left inbd eng) (%)
p676
aVHPT ACC Valve Position (right inbd eng) (%)
p677
aVHPT ACC Valve Position Demand (left inbd eng) (%)
p678
aVHPT ACC Valve Position Demand (right inbd eng) (%)
p679
aVLPT ACC Valve Status (left inbd eng) (1 = closed)
p680
aVLPT ACC Valve Status (right inbd eng) (1 = closed)
p681
aVLPT ACC Valve Command (left inbd eng) (1 = closed)
p682
aVLPT ACC Valve Command (right inbd eng) (1 = closed)
p683
aVN1 (left inbd eng)
p684
aVN1 (left inbd eng) (%)
p685
aVN1 (left inbd eng) (RPM)
p686
aVN1 (left inbd eng) accel / decel flag
p687
aVN1 (left inbd eng) (sample 1/sec) Rate of Change (% / sec)
p688
aVN1 (right inbd eng)
p689
aVN1 (right inbd eng) (%)
p690
aVN1 (right inbd eng) (RPM)
p691
aVN1 (right inbd eng) accel / decel flag
p692
aVN1 (right inbd eng) (sample 1/sec) Rate of Change (% / sec)
p693
aVN1 Command (left inbd eng) (%)
p694
aVN1 Command (right inbd eng) (%)
p695
aVN1 Overspeed (left inbd eng) (1 = warn)
p696
aVN1 Overspeed (right inbd eng) (1 = warn)
p697
aVN2 (left inbd eng)
p698
aVN2 (left inbd eng) (%)
p699
aVN2 (left inbd eng) (sample 1/sec) (%)
p700
aVN2 (left inbd eng) accel / decel flag
p701
aVN2 (left inbd eng) (sample 1/sec) Rate of Change (% / sec)
p702
aVN2 (right inbd eng)
p703
aVN2 (right inbd eng) (%)
p704
aVN2 (right inbd eng) (sample 1/sec) (%)
p705
aVN2 (right inbd eng) accel / decel flag
p706
aVN2 (right inbd eng) (sampling 1/sec) (%)
p707
aVN2 (right inbd eng) accel / decel flag orig
p708
aVN2 (right inbd eng) (sample 1/sec) Rate of Change (% / sec)
p709
aVLow Oil Pressure (left inbd eng) (1 = warn)
p710
aVLow Oil Pressure (right inbd eng) (1 = warn)
p711
aVOil Pressure (left inbd eng) (psi)
p712
aVLow Oil Pressure (left inbd eng) (1 = warn)
p713
aVOil Pressure (right inbd eng) (psi)
p714
aVLow Oil Pressure (right inbd eng) (1 = warn)
p715
aVOil Quantity (left inbd eng) (quarts)
p716
aVSmoothed Oil Quantity (left inbd eng)
p717
aVOil Quantity (left inbd eng, sample 1/s)
p718
aVPercentage Change of  Oil Quantity (left inbd eng)
p719
aVDivergence of Oil Quantity (left inbd eng) - avg (quarts)
p720
aVOil Quantity (right inbd eng) (quarts)
p721
aVSmoothed Oil Quantity (right inbd eng)
p722
aVOil Quantity (right inbd eng, sample 1/s)
p723
aVPercentage Change of  Oil Quantity (right inbd eng)
p724
aVDivergence of Oil Quantity (right inbd eng) - avg (quarts)
p725
aVOil Temperature (left inbd eng) (deg C)
p726
aVOil Temperature (right inbd eng) (deg C)
p727
aVInlet Static Pressure P0 (left inbd eng) (psi)
p728
aVInlet Static Pressure P0 (right inbd eng) (psi)
p729
aVCompressor Exit Static Pressure PS3 (left inbd eng) (psi)
p730
aVCompressor Exit Static Pressure PS3 (right inbd eng) (psi)
p731
aVStator Vane Actuator Posn (left inbd eng) (% open)
p732
aVStator Vane Actuator Posn (right inbd eng) (% open)
p733
aVStator Vane Actuator Posn Demand (left inbd eng) (% open)
p734
aVStator Vane Actuator Posn Demand (right inbd eng) (% open)
p735
aVCompressor Exit Temperature T3 (left inbd eng) (deg C)
p736
aVCompressor Exit Temperature T3 (right inbd eng) (deg C)
p737
aVThrust Lever Angle (left inbd eng) (deg)
p738
aVThrust Lever Angle (right inbd eng) (deg)
p739
aVThrust (left inbd eng) (N)
p740
aVThrust (left inbd eng) (lbs)
p741
aVThrust (right inbd eng) (N)
p742
aVThrust (right inbd eng) (lbs)
p743
aVThrust (total) (N)
p744
aVThrust (total) (lbs)
p745
aVEstimated Excess Thrust (total) (N)
p746
aVEstimated Excess Thrust (total) (lbs)
p747
aVThrust Expected (clean) (N)
p748
aVThrust Expected (clean) (lbs)
p749
aVBaro-Corrected Altitude (ft)
p750
aVAltitude Loss (Baro-Corrected Altitude) (ft)
p751
aVMeasurement: Maximum Baro-Corrected Altitude (ft)
p752
aVMeasurement: Maximum Baro-Corrected Altitude prior to First Go-Around (ft)
p753
aVMeasurement: Baro-Corrected Altitude (QNH) Error From Takeoff Altimeter Setting Error (ft)
p754
aVMeasurement: Baro-Corrected Altitude (QNH) Error From Landing Altimeter Setting Error (ft)
p755
aVBest Available MSL Altitude (ft)
p756
aVMeasurement: Best Available MSL Altitude at Liftoff (feet)
p757
aVMeasurement: Best Available MSL Altitude at Touchdown (feet)
p758
aVAcceleration (normal load-factor) (g's)
p759
aVAirspeed (calibrated; 1 or Only) (knots)
p760
aVGround Speed (best avail) (knots)
p761
aVUncertainty of Ground Speed (best avail) (knots)
p762
aVMach Number
p763
aVMach Number (ADC 2)
p764
aVVertical Speed (best avail) (ft/min)
p765
aVPitch Command (deg+=Nose up)
p766
aVPitch Command (F/O) (deg+=Nose up)
p767
aVPitch Command (Capt) (deg+=Nose up)
p768
aVMeasurement: Pitch Commands Mechanically-Linked (1=linked)
p769
aVPilot Pitch Commands are Mechanically Linked Together (1 = linked)
p770
aVMeasurement: Pilot Flying Takeoff (Pitch Command Method) (1=Capt; 0=F/O)
p771
aVMeasurement: Pilot Flying Landing (Pitch Command Method) (1=Capt; 0=F/O)
p772
aVMeasurement: Pilot Flying First Approach (Pitch Command Method) (1=Capt; 0=F/O)
p773
aVMeasurement: Standard Deviation of F/O Pitch Command during Takeoff (deg+=Nose up)
p774
aVMeasurement: Standard Deviation of Captain Pitch Command during Takeoff (deg+=Nose up)
p775
aVMeasurement: Standard Deviation of F/O Pitch Command during First Approach (deg+=Nose up)
p776
aVMeasurement: Standard Deviation of Captain Pitch Command during First Approach (deg+=Nose up)
p777
aVMeasurement: Standard Deviation of F/O Pitch Command: Last Approach and Landing (deg+=Nose up)
p778
aVMeasurement: Standard Deviation of Captain Pitch Command: Last Approach and Landing (deg+=Nose up)
p779
aVRoll Command (deg+=RWD)
p780
aVRoll Command (F/O) (deg+=RWD)
p781
aVRoll Command (Capt) (deg+=RWD)
p782
aVPilot Roll Commands are Mechanically Linked Together (1 = linked)
p783
aVSpeed Brake Handle (deg)
p784
aVSpeed Brake Handle Position for Arming the Ground Spoilers
p785
aVMax Speed Brake Handle Position for Extending the Speed Brakes
p786
aVMin Speed Brake Handle Position for Extending the Speed Brakes
p787
aVMax Speed Brake Handle Position for Extending the Speed Brakes rollout 
p788
aVRudder Position (lower) (deg+=TER)
p789
aVRudder Position (upper) (deg+=TER)
p790
aVFuel Flow (left inbd eng) (kg/hr)
p791
aVFuel Flow (right inbd eng) (kg/hr)
p792
aVFuel Flow Selection Status (left inbd eng)
p793
aVFuel Flow Selection Status (right inbd eng)
p794
aVFuel Temperature (left inbd tank) (deg C)
p795
aVHP Fuel Valve (left inbd eng) (1 = open)
p796
aVHP Fuel Valve (right inbd eng) (1 = open)
p797
aVBrake Temperature (left inbd) (deg C)
p798
aVBrake Temperature (right inbd) (deg C)
p799
aVHydraulic Pressure (A, 1, or left) (psi)
p800
aVHydraulic Pressure (B, 2, or center) (psi)
p801
aVHydraulic Pressure (C, 3, or right) (psi)
p802
aVBest Available Latitude (deg)
p803
aVBest Available Longitude (deg)
p804
aVGreat-Circle Distance from Landing Airport (nm)
p805
aVEngine Anti-ice (left inbd) (1 = on)
p806
aVEngine Anti-ice (right inbd) (1 = on)
p807
aVIce Detected (left inbd eng) (1 = ice)
p808
aVIce Detected (right inbd eng) (1 = ice)
p809
aVWing Anti-ice (left) (1 = on)
p810
aVWing Anti-ice (right) (1 = on)
p811
aVCabin Altitude (ft)
p812
aVCabin Altitude Limit (ft)
p813
aVCabin Altitude Rate (ft/min)
p814
aVTimepoint: Maximum Cabin Altitude While Airborne
p815
aVCabin Altitude Limit for High Altitude Airports (ft)
p816
aVMeasurement: Maximum Cabin Altitude While Airborne (ft)
p817
aVCabin Pressure (PSI)
p818
aVCabin Pressure (hPa (mbar))
p819
aVCabin Pressure Warning (1 = warn)
p820
aVDifferential Cabin Pressure (PSI)
p821
aVMaximum Negative Differential Cabin Pressure (PSI)
p822
aVDifferential Cabin Pressure Safety Relief Valve Setting (PSI)
p823
aVTimepoint: Minimum Differential Cabin Pressure While Airborne
p824
aVTimepoint: Maximum Differential Cabin Pressure While Airborne
p825
aVMeasurement: Minimum Differential Cabin Pressure While Airborne (PSI)
p826
aVMeasurement: Maximum Differential Cabin Pressure While Airborne (PSI)
p827
aVMeasurement: Minimum Differential Cabin Pressure Margin to Safety Valve (PSI)
p828
aVOutflow Valve Position (1, aft or only) (% Open)
p829
aVOutflow Valve Position (2, fwd) (% Open)
p830
aVBleed Valve Posn (left inbd) (1 = open)
p831
aV2.5 Bleed Valve Posn (left inbd) (% open)
p832
aVBleed Valve Posn (right inbd) (1 = open)
p833
aV2.5 Bleed Valve Posn (right inbd) (% open)
p834
aVEngine Bleed-Duct Pressure (left) (PSI)
p835
aVEngine Bleed-Duct Pressure (right) (PSI)
p836
aVEGT (left inbd eng) (deg C)
p837
aVEGT (left inbd eng) 8Hz (deg C)
p838
aVEGT (left inbd eng) accel / decel flag
p839
aVEGT (left inbd eng) (sample 1/sec) (deg C)
p840
aVEGT (right inbd eng) (deg C)
p841
aVEGT (right inbd eng) accel / decel flag
p842
aVEGT (right inbd eng) (sample 1/sec) (deg C)
p843
aVHPT ACC Valve Position (left inbd eng) (%)
p844
aVHPT ACC Valve Position (right inbd eng) (%)
p845
aVHPT ACC Valve Position Demand (left inbd eng) (%)
p846
aVHPT ACC Valve Position Demand (right inbd eng) (%)
p847
aVLPT ACC Valve Status (left inbd eng) (1 = closed)
p848
aVLPT ACC Valve Status (right inbd eng) (1 = closed)
p849
aVLPT ACC Valve Command (left inbd eng) (1 = closed)
p850
aVLPT ACC Valve Command (right inbd eng) (1 = closed)
p851
aVN1 (left inbd eng)
p852
aVN1 (left inbd eng) (%)
p853
aVN1 (left inbd eng) (RPM)
p854
aVN1 (left inbd eng) accel / decel flag
p855
aVN1 (left inbd eng) (sample 1/sec) Rate of Change (% / sec)
p856
aVN1 (right inbd eng)
p857
aVN1 (right inbd eng) (%)
p858
aVN1 (right inbd eng) (RPM)
p859
aVN1 (right inbd eng) accel / decel flag
p860
aVN1 (right inbd eng) (sample 1/sec) Rate of Change (% / sec)
p861
aVN1 Command (left inbd eng) (%)
p862
aVN1 Command (right inbd eng) (%)
p863
aVN1 Overspeed (left inbd eng) (1 = warn)
p864
aVN1 Overspeed (right inbd eng) (1 = warn)
p865
aVN2 (left inbd eng)
p866
aVN2 (left inbd eng) (%)
p867
aVN2 (left inbd eng) (sample 1/sec) (%)
p868
aVN2 (left inbd eng) accel / decel flag
p869
aVN2 (left inbd eng) (sample 1/sec) Rate of Change (% / sec)
p870
aVN2 (right inbd eng)
p871
aVN2 (right inbd eng) (%)
p872
aVN2 (right inbd eng) (sample 1/sec) (%)
p873
aVN2 (right inbd eng) accel / decel flag
p874
aVN2 (right inbd eng) (sampling 1/sec) (%)
p875
aVN2 (right inbd eng) accel / decel flag orig
p876
aVN2 (right inbd eng) (sample 1/sec) Rate of Change (% / sec)
p877
aVLow Oil Pressure (left inbd eng) (1 = warn)
p878
aVLow Oil Pressure (right inbd eng) (1 = warn)
p879
aVOil Pressure (left inbd eng) (psi)
p880
aVLow Oil Pressure (left inbd eng) (1 = warn)
p881
aVOil Pressure (right inbd eng) (psi)
p882
aVLow Oil Pressure (right inbd eng) (1 = warn)
p883
aVOil Quantity (left inbd eng) (quarts)
p884
aVSmoothed Oil Quantity (left inbd eng)
p885
aVOil Quantity (left inbd eng, sample 1/s)
p886
aVPercentage Change of  Oil Quantity (left inbd eng)
p887
aVDivergence of Oil Quantity (left inbd eng) - avg (quarts)
p888
aVOil Quantity (right inbd eng) (quarts)
p889
aVSmoothed Oil Quantity (right inbd eng)
p890
aVOil Quantity (right inbd eng, sample 1/s)
p891
aVPercentage Change of  Oil Quantity (right inbd eng)
p892
aVDivergence of Oil Quantity (right inbd eng) - avg (quarts)
p893
aVOil Temperature (left inbd eng) (deg C)
p894
aVOil Temperature (right inbd eng) (deg C)
p895
aVInlet Static Pressure P0 (left inbd eng) (psi)
p896
aVInlet Static Pressure P0 (right inbd eng) (psi)
p897
aVCompressor Exit Static Pressure PS3 (left inbd eng) (psi)
p898
aVCompressor Exit Static Pressure PS3 (right inbd eng) (psi)
p899
aVStator Vane Actuator Posn (left inbd eng) (% open)
p900
aVStator Vane Actuator Posn (right inbd eng) (% open)
p901
aVStator Vane Actuator Posn Demand (left inbd eng) (% open)
p902
aVStator Vane Actuator Posn Demand (right inbd eng) (% open)
p903
aVCompressor Exit Temperature T3 (left inbd eng) (deg C)
p904
aVCompressor Exit Temperature T3 (right inbd eng) (deg C)
p905
aVThrust Lever Angle (left inbd eng) (deg)
p906
aVThrust Lever Angle (right inbd eng) (deg)
p907
aVThrust (left inbd eng) (N)
p908
aVThrust (left inbd eng) (lbs)
p909
aVThrust (right inbd eng) (N)
p910
aVThrust (right inbd eng) (lbs)
p911
aVThrust (total) (N)
p912
aVThrust (total) (lbs)
p913
aVEstimated Excess Thrust (total) (N)
p914
aVEstimated Excess Thrust (total) (lbs)
p915
aVThrust Expected (clean) (N)
p916
aVThrust Expected (clean) (lbs)
p917
aVHours of Data (hours)
p918
aVDownload Hours of Data (hours)
p919
aVft
p920
aVft
p921
aVft
p922
aVft
p923
aVft
p924
aVft
p925
aVft
p926
aVfeet
p927
aVfeet
p928
aVg's
p929
aVknots
p930
aVknots
p931
aVknots
p932
aV
aV
aVft/min
p933
aVdeg+=Nose up
p934
aVdeg+=Nose up
p935
aVdeg+=Nose up
p936
aV1=linked
p937
aV1 = linked
p938
aV1=Capt; 0=F/O
p939
aV1=Capt; 0=F/O
p940
aV1=Capt; 0=F/O
p941
aVdeg+=Nose up
p942
aVdeg+=Nose up
p943
aVdeg+=Nose up
p944
aVdeg+=Nose up
p945
aVdeg+=Nose up
p946
aVdeg+=Nose up
p947
aVdeg+=RWD
p948
aVdeg+=RWD
p949
aVdeg+=RWD
p950
aV1 = linked
p951
aVdeg
p952
aV
aV
aV
aV
aVdeg+=TER
p953
aVdeg+=TER
p954
aVkg/hr
p955
aVkg/hr
p956
aV
aV
aVdeg C
p957
aV1 = open
p958
aV1 = open
p959
aVdeg C
p960
aVdeg C
p961
aVpsi
p962
aVpsi
p963
aVpsi
p964
aVdeg
p965
aVdeg
p966
aVnm
p967
aV1 = on
p968
aV1 = on
p969
aV1 = ice
p970
aV1 = ice
p971
aV1 = on
p972
aV1 = on
p973
aVft
p974
aVft
p975
aVft/min
p976
aV
aVft
p977
aVft
p978
aVPSI
p979
aVhPa (mbar)
p980
aV1 = warn
p981
aVPSI
p982
aVPSI
p983
aVPSI
p984
aV
aV
aVPSI
p985
aVPSI
p986
aVPSI
p987
aV% Open
p988
aV% Open
p989
aV1 = open
p990
aV% open
p991
aV1 = open
p992
aV% open
p993
aVPSI
p994
aVPSI
p995
aVdeg C
p996
aVdeg C
p997
aV
aVdeg C
p998
aVdeg C
p999
aV
aVdeg C
p1000
aV%
aV%
aV%
aV%
aV1 = closed
p1001
aV1 = closed
p1002
aV1 = closed
p1003
aV1 = closed
p1004
aV
aV%
aVRPM
p1005
aV
aV% / sec
p1006
aV
aV%
aVRPM
p1007
aV
aV% / sec
p1008
aV%
aV%
aV1 = warn
p1009
aV1 = warn
p1010
aV
aV%
aV%
aV
aV% / sec
p1011
aV
aV%
aV%
aV
aV%
aV
aV% / sec
p1012
aV1 = warn
p1013
aV1 = warn
p1014
aVpsi
p1015
aV1 = warn
p1016
aVpsi
p1017
aV1 = warn
p1018
aVquarts
p1019
aV
aV
aV
aVquarts
p1020
aVquarts
p1021
aV
aV
aV
aVquarts
p1022
aVdeg C
p1023
aVdeg C
p1024
aVpsi
p1025
aVpsi
p1026
aVpsi
p1027
aVpsi
p1028
aV% open
p1029
aV% open
p1030
aV% open
p1031
aV% open
p1032
aVdeg C
p1033
aVdeg C
p1034
aVdeg
p1035
aVdeg
p1036
aVN
aVlbs
p1037
aVN
aVlbs
p1038
aVN
aVlbs
p1039
aVN
aVlbs
p1040
aVN
aVlbs
p1041
aVft
p1042
aVft
p1043
aVft
p1044
aVft
p1045
aVft
p1046
aVft
p1047
aVft
p1048
aVfeet
p1049
aVfeet
p1050
aVg's
p1051
aVknots
p1052
aVknots
p1053
aVknots
p1054
aV
aV
aVft/min
p1055
aVdeg+=Nose up
p1056
aVdeg+=Nose up
p1057
aVdeg+=Nose up
p1058
aV1=linked
p1059
aV1 = linked
p1060
aV1=Capt; 0=F/O
p1061
aV1=Capt; 0=F/O
p1062
aV1=Capt; 0=F/O
p1063
aVdeg+=Nose up
p1064
aVdeg+=Nose up
p1065
aVdeg+=Nose up
p1066
aVdeg+=Nose up
p1067
aVdeg+=Nose up
p1068
aVdeg+=Nose up
p1069
aVdeg+=RWD
p1070
aVdeg+=RWD
p1071
aVdeg+=RWD
p1072
aV1 = linked
p1073
aVdeg
p1074
aV
aV
aV
aV
aVdeg+=TER
p1075
aVdeg+=TER
p1076
aVkg/hr
p1077
aVkg/hr
p1078
aV
aV
aVdeg C
p1079
aV1 = open
p1080
aV1 = open
p1081
aVdeg C
p1082
aVdeg C
p1083
aVpsi
p1084
aVpsi
p1085
aVpsi
p1086
aVdeg
p1087
aVdeg
p1088
aVnm
p1089
aV1 = on
p1090
aV1 = on
p1091
aV1 = ice
p1092
aV1 = ice
p1093
aV1 = on
p1094
aV1 = on
p1095
aVft
p1096
aVft
p1097
aVft/min
p1098
aV
aVft
p1099
aVft
p1100
aVPSI
p1101
aVhPa (mbar)
p1102
aV1 = warn
p1103
aVPSI
p1104
aVPSI
p1105
aVPSI
p1106
aV
aV
aVPSI
p1107
aVPSI
p1108
aVPSI
p1109
aV% Open
p1110
aV% Open
p1111
aV1 = open
p1112
aV% open
p1113
aV1 = open
p1114
aV% open
p1115
aVPSI
p1116
aVPSI
p1117
aVdeg C
p1118
aVdeg C
p1119
aV
aVdeg C
p1120
aVdeg C
p1121
aV
aVdeg C
p1122
aV%
aV%
aV%
aV%
aV1 = closed
p1123
aV1 = closed
p1124
aV1 = closed
p1125
aV1 = closed
p1126
aV
aV%
aVRPM
p1127
aV
aV% / sec
p1128
aV
aV%
aVRPM
p1129
aV
aV% / sec
p1130
aV%
aV%
aV1 = warn
p1131
aV1 = warn
p1132
aV
aV%
aV%
aV
aV% / sec
p1133
aV
aV%
aV%
aV
aV%
aV
aV% / sec
p1134
aV1 = warn
p1135
aV1 = warn
p1136
aVpsi
p1137
aV1 = warn
p1138
aVpsi
p1139
aV1 = warn
p1140
aVquarts
p1141
aV
aV
aV
aVquarts
p1142
aVquarts
p1143
aV
aV
aV
aVquarts
p1144
aVdeg C
p1145
aVdeg C
p1146
aVpsi
p1147
aVpsi
p1148
aVpsi
p1149
aVpsi
p1150
aV% open
p1151
aV% open
p1152
aV% open
p1153
aV% open
p1154
aVdeg C
p1155
aVdeg C
p1156
aVdeg
p1157
aVdeg
p1158
aVN
aVlbs
p1159
aVN
aVlbs
p1160
aVN
aVlbs
p1161
aVN
aVlbs
p1162
aVN
aVlbs
p1163
aVhours
p1164
aVhours
p1165
atba(lp1166
g14
(g15
(dp1167
g17
g18
(g19
(I0
tS'b'
tRp1168
(I1
(L4L
tg22
I00
(lp1169
g24
ag25
ag26
ag27
atbsg28
NstRp1170
a(dp1171
S'0.14.1'
p1172
(dp1173
S'axes'
p1174
g13
sS'blocks'
p1175
(lp1176
(dp1177
S'mgr_locs'
p1178
c__builtin__
slice
p1179
(I0
I4
I1
tRp1180
sS'values'
p1181
g37
sasstbsb.